	.file	"formats.c"
	.text
	.globl	shvThreadCount
	.section	.rodata
	.align 4
	.type	shvThreadCount, @object
	.size	shvThreadCount, 4
shvThreadCount:
	.long	42
	.globl	pecThreadCount
	.align 4
	.type	pecThreadCount, @object
	.size	pecThreadCount, 4
pecThreadCount:
	.long	65
	.align 8
.LC0:
	.string	"ERROR: emb_fname_extension(), fileName argument is null.\n"
	.align 8
.LC1:
	.string	"ERROR: emb_fname_extension(), fileName argument is an empty string.\n"
	.align 8
.LC2:
	.string	"ERROR: emb_fname_extension(), filename has no stub.\n"
	.text
	.globl	emb_fname_extension
	.type	emb_fname_extension, @function
emb_fname_extension:
.LFB6:
	.cfi_startproc
	pushq	%rbp
	.cfi_def_cfa_offset 16
	.cfi_offset 6, -16
	movq	%rsp, %rbp
	.cfi_def_cfa_register 6
	subq	$32, %rsp
	movq	%rdi, -24(%rbp)
	movq	%rsi, -32(%rbp)
	cmpq	$0, -24(%rbp)
	jne	.L2
	leaq	.LC0(%rip), %rax
	movq	%rax, %rdi
	call	puts@PLT
	movl	$0, %eax
	jmp	.L3
.L2:
	movq	-24(%rbp), %rax
	movzbl	(%rax), %eax
	testb	%al, %al
	jne	.L4
	leaq	.LC1(%rip), %rax
	movq	%rax, %rdi
	call	puts@PLT
	movl	$0, %eax
	jmp	.L3
.L4:
	movq	-24(%rbp), %rax
	movl	$46, %esi
	movq	%rax, %rdi
	call	string_rchar@PLT
	movl	%eax, -8(%rbp)
	cmpl	$0, -8(%rbp)
	jne	.L5
	leaq	.LC2(%rip), %rax
	movq	%rax, %rdi
	call	puts@PLT
	movl	$0, %eax
	jmp	.L3
.L5:
	movl	$0, -4(%rbp)
	jmp	.L6
.L7:
	movl	-8(%rbp), %edx
	movl	-4(%rbp), %eax
	addl	%edx, %eax
	movslq	%eax, %rdx
	movq	-24(%rbp), %rax
	addq	%rdx, %rax
	movzbl	(%rax), %eax
	movzbl	%al, %eax
	movl	%eax, %edi
	call	char_to_lower@PLT
	movl	%eax, %ecx
	movl	-4(%rbp), %eax
	movslq	%eax, %rdx
	movq	-32(%rbp), %rax
	addq	%rdx, %rax
	movl	%ecx, %edx
	movb	%dl, (%rax)
	addl	$1, -4(%rbp)
.L6:
	movl	-8(%rbp), %edx
	movl	-4(%rbp), %eax
	addl	%edx, %eax
	movslq	%eax, %rdx
	movq	-24(%rbp), %rax
	addq	%rdx, %rax
	movzbl	(%rax), %eax
	testb	%al, %al
	jne	.L7
	movl	-4(%rbp), %eax
	movslq	%eax, %rdx
	movq	-32(%rbp), %rax
	addq	%rdx, %rax
	movb	$0, (%rax)
	movl	$1, %eax
.L3:
	leave
	.cfi_def_cfa 7, 8
	ret
	.cfi_endproc
.LFE6:
	.size	emb_fname_extension, .-emb_fname_extension
	.section	.rodata
	.align 8
.LC3:
	.string	"Failed to isolate the extension of the supplied fileName."
	.text
	.globl	emb_identify_format
	.type	emb_identify_format, @function
emb_identify_format:
.LFB7:
	.cfi_startproc
	pushq	%rbp
	.cfi_def_cfa_offset 16
	.cfi_offset 6, -16
	movq	%rsp, %rbp
	.cfi_def_cfa_register 6
	subq	$32, %rsp
	movq	%rdi, -24(%rbp)
	leaq	-9(%rbp), %rdx
	movq	-24(%rbp), %rax
	movq	%rdx, %rsi
	movq	%rax, %rdi
	call	emb_fname_extension
	testl	%eax, %eax
	jne	.L9
	leaq	.LC3(%rip), %rax
	movq	%rax, %rdi
	call	puts@PLT
	movl	$-1, %eax
	jmp	.L14
.L9:
	movl	$0, -4(%rbp)
	jmp	.L11
.L13:
	movl	-4(%rbp), %eax
	cltq
	imulq	$420, %rax, %rax
	leaq	formatTable(%rip), %rdx
	leaq	(%rax,%rdx), %rcx
	leaq	-9(%rbp), %rax
	movl	$10, %edx
	movq	%rcx, %rsi
	movq	%rax, %rdi
	call	strncmp@PLT
	testl	%eax, %eax
	jne	.L12
	movl	-4(%rbp), %eax
	jmp	.L14
.L12:
	addl	$1, -4(%rbp)
.L11:
	cmpl	$60, -4(%rbp)
	jle	.L13
	movl	$-1, %eax
.L14:
	leave
	.cfi_def_cfa 7, 8
	ret
	.cfi_endproc
.LFE7:
	.size	emb_identify_format, .-emb_identify_format
	.section	.rodata
	.align 8
.LC4:
	.string	"ERROR: failed to read %d bytes from file."
	.text
	.globl	read_n_bytes
	.type	read_n_bytes, @function
read_n_bytes:
.LFB8:
	.cfi_startproc
	pushq	%rbp
	.cfi_def_cfa_offset 16
	.cfi_offset 6, -16
	movq	%rsp, %rbp
	.cfi_def_cfa_register 6
	subq	$32, %rsp
	movq	%rdi, -8(%rbp)
	movq	%rsi, -16(%rbp)
	movl	%edx, -20(%rbp)
	movl	-20(%rbp), %edx
	movq	-8(%rbp), %rcx
	movq	-16(%rbp), %rax
	movl	$1, %esi
	movq	%rax, %rdi
	call	fread@PLT
	movq	%rax, %rdx
	movl	-20(%rbp), %eax
	cmpq	%rax, %rdx
	je	.L16
	movl	-20(%rbp), %eax
	movl	%eax, %esi
	leaq	.LC4(%rip), %rax
	movq	%rax, %rdi
	movl	$0, %eax
	call	printf@PLT
	movl	$0, %eax
	jmp	.L17
.L16:
	movl	$1, %eax
.L17:
	leave
	.cfi_def_cfa 7, 8
	ret
	.cfi_endproc
.LFE8:
	.size	read_n_bytes, .-read_n_bytes
	.section	.rodata
	.align 8
.LC5:
	.string	"ERROR: emb_pattern_read(), pattern argument is null."
	.align 8
.LC6:
	.string	"ERROR: emb_pattern_read(), fileName argument is null."
.LC7:
	.string	"rb"
	.align 8
.LC8:
	.string	"ERROR: Failed to open file with name: %s.\n"
	.text
	.globl	emb_pattern_read
	.type	emb_pattern_read, @function
emb_pattern_read:
.LFB9:
	.cfi_startproc
	pushq	%rbp
	.cfi_def_cfa_offset 16
	.cfi_offset 6, -16
	movq	%rsp, %rbp
	.cfi_def_cfa_register 6
	subq	$48, %rsp
	movq	%rdi, -24(%rbp)
	movq	%rsi, -32(%rbp)
	movl	%edx, -36(%rbp)
	movl	$0, -4(%rbp)
	cmpq	$0, -24(%rbp)
	jne	.L19
	leaq	.LC5(%rip), %rax
	movq	%rax, %rdi
	call	puts@PLT
	movl	$0, %eax
	jmp	.L20
.L19:
	cmpq	$0, -32(%rbp)
	jne	.L21
	leaq	.LC6(%rip), %rax
	movq	%rax, %rdi
	call	puts@PLT
	movl	$0, %eax
	jmp	.L20
.L21:
	movq	-32(%rbp), %rax
	leaq	.LC7(%rip), %rdx
	movq	%rdx, %rsi
	movq	%rax, %rdi
	call	fopen@PLT
	movq	%rax, -16(%rbp)
	cmpq	$0, -16(%rbp)
	jne	.L22
	cmpl	$15, -36(%rbp)
	je	.L23
	cmpl	$44, -36(%rbp)
	je	.L23
	cmpl	$6, -36(%rbp)
	je	.L23
	cmpl	$26, -36(%rbp)
	je	.L23
	movq	-32(%rbp), %rax
	movq	%rax, %rsi
	leaq	.LC8(%rip), %rax
	movq	%rax, %rdi
	movl	$0, %eax
	call	printf@PLT
.L23:
	movl	$0, %eax
	jmp	.L20
.L22:
	movl	-36(%rbp), %eax
	cltq
	imulq	$420, %rax, %rax
	leaq	412+formatTable(%rip), %rdx
	movl	(%rax,%rdx), %eax
	testl	%eax, %eax
	je	.L24
	movq	-32(%rbp), %rdx
	movq	-24(%rbp), %rax
	movq	%rdx, %rsi
	movq	%rax, %rdi
	call	emb_pattern_loadExternalColorFile@PLT
.L24:
	cmpl	$60, -36(%rbp)
	ja	.L90
	movl	-36(%rbp), %eax
	leaq	0(,%rax,4), %rdx
	leaq	.L27(%rip), %rax
	movl	(%rdx,%rax), %eax
	cltq
	leaq	.L27(%rip), %rdx
	addq	%rdx, %rax
	jmp	*%rax
	.section	.rodata
	.align 4
	.align 4
.L27:
	.long	.L87-.L27
	.long	.L86-.L27
	.long	.L85-.L27
	.long	.L84-.L27
	.long	.L83-.L27
	.long	.L82-.L27
	.long	.L81-.L27
	.long	.L80-.L27
	.long	.L79-.L27
	.long	.L78-.L27
	.long	.L77-.L27
	.long	.L76-.L27
	.long	.L75-.L27
	.long	.L74-.L27
	.long	.L73-.L27
	.long	.L72-.L27
	.long	.L71-.L27
	.long	.L70-.L27
	.long	.L69-.L27
	.long	.L68-.L27
	.long	.L67-.L27
	.long	.L66-.L27
	.long	.L65-.L27
	.long	.L64-.L27
	.long	.L63-.L27
	.long	.L62-.L27
	.long	.L61-.L27
	.long	.L60-.L27
	.long	.L59-.L27
	.long	.L58-.L27
	.long	.L57-.L27
	.long	.L56-.L27
	.long	.L55-.L27
	.long	.L54-.L27
	.long	.L53-.L27
	.long	.L52-.L27
	.long	.L51-.L27
	.long	.L50-.L27
	.long	.L49-.L27
	.long	.L48-.L27
	.long	.L47-.L27
	.long	.L46-.L27
	.long	.L45-.L27
	.long	.L44-.L27
	.long	.L43-.L27
	.long	.L42-.L27
	.long	.L41-.L27
	.long	.L40-.L27
	.long	.L39-.L27
	.long	.L38-.L27
	.long	.L37-.L27
	.long	.L36-.L27
	.long	.L35-.L27
	.long	.L34-.L27
	.long	.L33-.L27
	.long	.L32-.L27
	.long	.L31-.L27
	.long	.L30-.L27
	.long	.L29-.L27
	.long	.L28-.L27
	.long	.L26-.L27
	.text
.L87:
	movq	-16(%rbp), %rdx
	movq	-24(%rbp), %rax
	movq	%rdx, %rsi
	movq	%rax, %rdi
	call	read100
	movsbl	%al, %eax
	movl	%eax, -4(%rbp)
	jmp	.L88
.L86:
	movq	-16(%rbp), %rdx
	movq	-24(%rbp), %rax
	movq	%rdx, %rsi
	movq	%rax, %rdi
	call	read10o
	movsbl	%al, %eax
	movl	%eax, -4(%rbp)
	jmp	.L88
.L85:
	movq	-16(%rbp), %rdx
	movq	-24(%rbp), %rax
	movq	%rdx, %rsi
	movq	%rax, %rdi
	call	readArt
	movsbl	%al, %eax
	movl	%eax, -4(%rbp)
	jmp	.L88
.L84:
	movq	-16(%rbp), %rdx
	movq	-24(%rbp), %rax
	movq	%rdx, %rsi
	movq	%rax, %rdi
	call	readBmc
	movsbl	%al, %eax
	movl	%eax, -4(%rbp)
	jmp	.L88
.L83:
	movq	-16(%rbp), %rdx
	movq	-24(%rbp), %rax
	movq	%rdx, %rsi
	movq	%rax, %rdi
	call	readBro
	movsbl	%al, %eax
	movl	%eax, -4(%rbp)
	jmp	.L88
.L82:
	movq	-16(%rbp), %rdx
	movq	-24(%rbp), %rax
	movq	%rdx, %rsi
	movq	%rax, %rdi
	call	readCnd
	movsbl	%al, %eax
	movl	%eax, -4(%rbp)
	jmp	.L88
.L81:
	movq	-16(%rbp), %rdx
	movq	-24(%rbp), %rax
	movq	%rdx, %rsi
	movq	%rax, %rdi
	call	readCol
	movsbl	%al, %eax
	movl	%eax, -4(%rbp)
	jmp	.L88
.L80:
	movq	-16(%rbp), %rdx
	movq	-24(%rbp), %rax
	movq	%rdx, %rsi
	movq	%rax, %rdi
	call	readCsd
	movsbl	%al, %eax
	movl	%eax, -4(%rbp)
	jmp	.L88
.L79:
	movq	-16(%rbp), %rdx
	movq	-24(%rbp), %rax
	movq	%rdx, %rsi
	movq	%rax, %rdi
	call	readCsv
	movsbl	%al, %eax
	movl	%eax, -4(%rbp)
	jmp	.L88
.L78:
	movq	-16(%rbp), %rdx
	movq	-24(%rbp), %rax
	movq	%rdx, %rsi
	movq	%rax, %rdi
	call	readDat
	movsbl	%al, %eax
	movl	%eax, -4(%rbp)
	jmp	.L88
.L77:
	movq	-16(%rbp), %rdx
	movq	-24(%rbp), %rax
	movq	%rdx, %rsi
	movq	%rax, %rdi
	call	readDem
	movsbl	%al, %eax
	movl	%eax, -4(%rbp)
	jmp	.L88
.L76:
	movq	-16(%rbp), %rdx
	movq	-24(%rbp), %rax
	movq	%rdx, %rsi
	movq	%rax, %rdi
	call	readDsb
	movsbl	%al, %eax
	movl	%eax, -4(%rbp)
	jmp	.L88
.L75:
	movq	-16(%rbp), %rdx
	movq	-24(%rbp), %rax
	movq	%rdx, %rsi
	movq	%rax, %rdi
	call	readDst
	movsbl	%al, %eax
	movl	%eax, -4(%rbp)
	jmp	.L88
.L74:
	movq	-16(%rbp), %rdx
	movq	-24(%rbp), %rax
	movq	%rdx, %rsi
	movq	%rax, %rdi
	call	readDsz
	movsbl	%al, %eax
	movl	%eax, -4(%rbp)
	jmp	.L88
.L73:
	movq	-16(%rbp), %rdx
	movq	-24(%rbp), %rax
	movq	%rdx, %rsi
	movq	%rax, %rdi
	call	readDxf
	movsbl	%al, %eax
	movl	%eax, -4(%rbp)
	jmp	.L88
.L72:
	movq	-16(%rbp), %rdx
	movq	-24(%rbp), %rax
	movq	%rdx, %rsi
	movq	%rax, %rdi
	call	readEdr
	movsbl	%al, %eax
	movl	%eax, -4(%rbp)
	jmp	.L88
.L71:
	movq	-16(%rbp), %rdx
	movq	-24(%rbp), %rax
	movq	%rdx, %rsi
	movq	%rax, %rdi
	call	readEmd
	movsbl	%al, %eax
	movl	%eax, -4(%rbp)
	jmp	.L88
.L70:
	movq	-16(%rbp), %rdx
	movq	-24(%rbp), %rax
	movq	%rdx, %rsi
	movq	%rax, %rdi
	call	readExp
	movsbl	%al, %eax
	movl	%eax, -4(%rbp)
	jmp	.L88
.L69:
	movq	-16(%rbp), %rdx
	movq	-24(%rbp), %rax
	movq	%rdx, %rsi
	movq	%rax, %rdi
	call	readExy
	movsbl	%al, %eax
	movl	%eax, -4(%rbp)
	jmp	.L88
.L68:
	movq	-16(%rbp), %rdx
	movq	-24(%rbp), %rax
	movq	%rdx, %rsi
	movq	%rax, %rdi
	call	readEys
	movsbl	%al, %eax
	movl	%eax, -4(%rbp)
	jmp	.L88
.L67:
	movq	-16(%rbp), %rdx
	movq	-24(%rbp), %rax
	movq	%rdx, %rsi
	movq	%rax, %rdi
	call	readFxy
	movsbl	%al, %eax
	movl	%eax, -4(%rbp)
	jmp	.L88
.L66:
	movq	-16(%rbp), %rdx
	movq	-24(%rbp), %rax
	movq	%rdx, %rsi
	movq	%rax, %rdi
	call	readGc
	movsbl	%al, %eax
	movl	%eax, -4(%rbp)
	jmp	.L88
.L65:
	movq	-16(%rbp), %rdx
	movq	-24(%rbp), %rax
	movq	%rdx, %rsi
	movq	%rax, %rdi
	call	readGnc
	movsbl	%al, %eax
	movl	%eax, -4(%rbp)
	jmp	.L88
.L64:
	movq	-16(%rbp), %rdx
	movq	-24(%rbp), %rax
	movq	%rdx, %rsi
	movq	%rax, %rdi
	call	readGt
	movsbl	%al, %eax
	movl	%eax, -4(%rbp)
	jmp	.L88
.L63:
	movq	-16(%rbp), %rdx
	movq	-24(%rbp), %rax
	movq	%rdx, %rsi
	movq	%rax, %rdi
	call	readHus
	movsbl	%al, %eax
	movl	%eax, -4(%rbp)
	jmp	.L88
.L62:
	movq	-16(%rbp), %rdx
	movq	-24(%rbp), %rax
	movq	%rdx, %rsi
	movq	%rax, %rdi
	call	readInb
	movsbl	%al, %eax
	movl	%eax, -4(%rbp)
	jmp	.L88
.L61:
	movq	-16(%rbp), %rdx
	movq	-24(%rbp), %rax
	movq	%rdx, %rsi
	movq	%rax, %rdi
	call	readInf
	movsbl	%al, %eax
	movl	%eax, -4(%rbp)
	jmp	.L88
.L60:
	movq	-16(%rbp), %rdx
	movq	-24(%rbp), %rax
	movq	%rdx, %rsi
	movq	%rax, %rdi
	call	readJef
	movsbl	%al, %eax
	movl	%eax, -4(%rbp)
	jmp	.L88
.L59:
	movq	-16(%rbp), %rdx
	movq	-24(%rbp), %rax
	movq	%rdx, %rsi
	movq	%rax, %rdi
	call	readKsm
	movsbl	%al, %eax
	movl	%eax, -4(%rbp)
	jmp	.L88
.L58:
	movq	-16(%rbp), %rdx
	movq	-24(%rbp), %rax
	movq	%rdx, %rsi
	movq	%rax, %rdi
	call	readMax
	movsbl	%al, %eax
	movl	%eax, -4(%rbp)
	jmp	.L88
.L57:
	movq	-16(%rbp), %rdx
	movq	-24(%rbp), %rax
	movq	%rdx, %rsi
	movq	%rax, %rdi
	call	readMit
	movsbl	%al, %eax
	movl	%eax, -4(%rbp)
	jmp	.L88
.L56:
	movq	-16(%rbp), %rdx
	movq	-24(%rbp), %rax
	movq	%rdx, %rsi
	movq	%rax, %rdi
	call	readNew
	movsbl	%al, %eax
	movl	%eax, -4(%rbp)
	jmp	.L88
.L55:
	movq	-16(%rbp), %rdx
	movq	-24(%rbp), %rax
	movq	%rdx, %rsi
	movq	%rax, %rdi
	call	readOfm
	movsbl	%al, %eax
	movl	%eax, -4(%rbp)
	jmp	.L88
.L54:
	movq	-16(%rbp), %rdx
	movq	-32(%rbp), %rcx
	movq	-24(%rbp), %rax
	movq	%rcx, %rsi
	movq	%rax, %rdi
	call	readPcd
	movsbl	%al, %eax
	movl	%eax, -4(%rbp)
	jmp	.L88
.L53:
	movq	-16(%rbp), %rdx
	movq	-24(%rbp), %rax
	movq	%rdx, %rsi
	movq	%rax, %rdi
	call	readPcm
	movsbl	%al, %eax
	movl	%eax, -4(%rbp)
	jmp	.L88
.L52:
	movq	-16(%rbp), %rdx
	movq	-32(%rbp), %rcx
	movq	-24(%rbp), %rax
	movq	%rcx, %rsi
	movq	%rax, %rdi
	call	readPcq
	movsbl	%al, %eax
	movl	%eax, -4(%rbp)
	jmp	.L88
.L51:
	movq	-16(%rbp), %rdx
	movq	-32(%rbp), %rcx
	movq	-24(%rbp), %rax
	movq	%rcx, %rsi
	movq	%rax, %rdi
	call	readPcs
	movsbl	%al, %eax
	movl	%eax, -4(%rbp)
	jmp	.L88
.L50:
	movq	-16(%rbp), %rdx
	movq	-32(%rbp), %rcx
	movq	-24(%rbp), %rax
	movq	%rcx, %rsi
	movq	%rax, %rdi
	call	readPec
	movsbl	%al, %eax
	movl	%eax, -4(%rbp)
	jmp	.L88
.L49:
	movq	-16(%rbp), %rdx
	movq	-24(%rbp), %rax
	movq	%rdx, %rsi
	movq	%rax, %rdi
	call	readPel
	movsbl	%al, %eax
	movl	%eax, -4(%rbp)
	jmp	.L88
.L48:
	movq	-16(%rbp), %rdx
	movq	-24(%rbp), %rax
	movq	%rdx, %rsi
	movq	%rax, %rdi
	call	readPem
	movsbl	%al, %eax
	movl	%eax, -4(%rbp)
	jmp	.L88
.L47:
	movq	-16(%rbp), %rdx
	movq	-32(%rbp), %rcx
	movq	-24(%rbp), %rax
	movq	%rcx, %rsi
	movq	%rax, %rdi
	call	readPes
	movsbl	%al, %eax
	movl	%eax, -4(%rbp)
	jmp	.L88
.L46:
	movq	-16(%rbp), %rdx
	movq	-24(%rbp), %rax
	movq	%rdx, %rsi
	movq	%rax, %rdi
	call	readPhb
	movsbl	%al, %eax
	movl	%eax, -4(%rbp)
	jmp	.L88
.L45:
	movq	-16(%rbp), %rdx
	movq	-24(%rbp), %rax
	movq	%rdx, %rsi
	movq	%rax, %rdi
	call	readPhc
	movsbl	%al, %eax
	movl	%eax, -4(%rbp)
	jmp	.L88
.L44:
	movq	-16(%rbp), %rdx
	movq	-24(%rbp), %rax
	movq	%rdx, %rsi
	movq	%rax, %rdi
	call	readPlt
	movsbl	%al, %eax
	movl	%eax, -4(%rbp)
	jmp	.L88
.L43:
	movq	-16(%rbp), %rdx
	movq	-24(%rbp), %rax
	movq	%rdx, %rsi
	movq	%rax, %rdi
	call	readRgb
	movsbl	%al, %eax
	movl	%eax, -4(%rbp)
	jmp	.L88
.L42:
	movq	-16(%rbp), %rdx
	movq	-24(%rbp), %rax
	movq	%rdx, %rsi
	movq	%rax, %rdi
	call	readSew
	movsbl	%al, %eax
	movl	%eax, -4(%rbp)
	jmp	.L88
.L41:
	movq	-16(%rbp), %rdx
	movq	-24(%rbp), %rax
	movq	%rdx, %rsi
	movq	%rax, %rdi
	call	readShv
	movsbl	%al, %eax
	movl	%eax, -4(%rbp)
	jmp	.L88
.L40:
	movq	-16(%rbp), %rdx
	movq	-24(%rbp), %rax
	movq	%rdx, %rsi
	movq	%rax, %rdi
	call	readSst
	movsbl	%al, %eax
	movl	%eax, -4(%rbp)
	jmp	.L88
.L39:
	movq	-16(%rbp), %rdx
	movq	-24(%rbp), %rax
	movq	%rdx, %rsi
	movq	%rax, %rdi
	call	readStx
	movsbl	%al, %eax
	movl	%eax, -4(%rbp)
	jmp	.L88
.L38:
	movq	-16(%rbp), %rdx
	movq	-24(%rbp), %rax
	movq	%rdx, %rsi
	movq	%rax, %rdi
	call	readSvg
	movsbl	%al, %eax
	movl	%eax, -4(%rbp)
	jmp	.L88
.L37:
	movq	-16(%rbp), %rdx
	movq	-24(%rbp), %rax
	movq	%rdx, %rsi
	movq	%rax, %rdi
	call	readT01
	movsbl	%al, %eax
	movl	%eax, -4(%rbp)
	jmp	.L88
.L36:
	movq	-16(%rbp), %rdx
	movq	-24(%rbp), %rax
	movq	%rdx, %rsi
	movq	%rax, %rdi
	call	readT09
	movsbl	%al, %eax
	movl	%eax, -4(%rbp)
	jmp	.L88
.L35:
	movq	-16(%rbp), %rdx
	movq	-24(%rbp), %rax
	movq	%rdx, %rsi
	movq	%rax, %rdi
	call	readTap
	movsbl	%al, %eax
	movl	%eax, -4(%rbp)
	jmp	.L88
.L34:
	movq	-16(%rbp), %rdx
	movq	-24(%rbp), %rax
	movq	%rdx, %rsi
	movq	%rax, %rdi
	call	readThr
	movsbl	%al, %eax
	movl	%eax, -4(%rbp)
	jmp	.L88
.L33:
	movq	-16(%rbp), %rdx
	movq	-24(%rbp), %rax
	movq	%rdx, %rsi
	movq	%rax, %rdi
	call	readTxt
	movsbl	%al, %eax
	movl	%eax, -4(%rbp)
	jmp	.L88
.L32:
	movq	-16(%rbp), %rdx
	movq	-24(%rbp), %rax
	movq	%rdx, %rsi
	movq	%rax, %rdi
	call	readU00
	movsbl	%al, %eax
	movl	%eax, -4(%rbp)
	jmp	.L88
.L31:
	movq	-16(%rbp), %rdx
	movq	-24(%rbp), %rax
	movq	%rdx, %rsi
	movq	%rax, %rdi
	call	readU01
	movsbl	%al, %eax
	movl	%eax, -4(%rbp)
	jmp	.L88
.L30:
	movq	-16(%rbp), %rdx
	movq	-24(%rbp), %rax
	movq	%rdx, %rsi
	movq	%rax, %rdi
	call	readVip
	movsbl	%al, %eax
	movl	%eax, -4(%rbp)
	jmp	.L88
.L29:
	movq	-16(%rbp), %rdx
	movq	-24(%rbp), %rax
	movq	%rdx, %rsi
	movq	%rax, %rdi
	call	readVp3
	movsbl	%al, %eax
	movl	%eax, -4(%rbp)
	jmp	.L88
.L28:
	movq	-16(%rbp), %rdx
	movq	-24(%rbp), %rax
	movq	%rdx, %rsi
	movq	%rax, %rdi
	call	readXxx
	movsbl	%al, %eax
	movl	%eax, -4(%rbp)
	jmp	.L88
.L26:
	movq	-16(%rbp), %rdx
	movq	-24(%rbp), %rax
	movq	%rdx, %rsi
	movq	%rax, %rdi
	call	readZsk
	movsbl	%al, %eax
	movl	%eax, -4(%rbp)
	jmp	.L88
.L90:
	nop
.L88:
	movq	-16(%rbp), %rax
	movq	%rax, %rdi
	call	fclose@PLT
	movl	-36(%rbp), %eax
	cltq
	imulq	$420, %rax, %rax
	leaq	408+formatTable(%rip), %rdx
	movl	(%rax,%rdx), %eax
	testl	%eax, %eax
	jne	.L89
	movq	-24(%rbp), %rax
	movq	%rax, %rdi
	call	emb_pattern_end@PLT
.L89:
	movl	-4(%rbp), %eax
.L20:
	leave
	.cfi_def_cfa 7, 8
	ret
	.cfi_endproc
.LFE9:
	.size	emb_pattern_read, .-emb_pattern_read
	.section	.rodata
	.align 8
.LC9:
	.string	"ERROR: emb_pattern_write(), pattern argument is null"
	.align 8
.LC10:
	.string	"ERROR: emb_pattern_write(), fileName argument is null"
	.align 8
.LC11:
	.string	"ERROR: emb_pattern_write(), pattern contains no stitches"
.LC12:
	.string	"wb"
	.align 8
.LC13:
	.string	"Failed to open file with name: %s."
	.text
	.globl	emb_pattern_write
	.type	emb_pattern_write, @function
emb_pattern_write:
.LFB10:
	.cfi_startproc
	pushq	%rbp
	.cfi_def_cfa_offset 16
	.cfi_offset 6, -16
	movq	%rsp, %rbp
	.cfi_def_cfa_register 6
	pushq	%rbx
	subq	$1064, %rsp
	.cfi_offset 3, -24
	movq	%rdi, -1048(%rbp)
	movq	%rsi, -1056(%rbp)
	movl	%edx, -1060(%rbp)
	movl	$0, -20(%rbp)
	cmpq	$0, -1048(%rbp)
	jne	.L92
	leaq	.LC9(%rip), %rax
	movq	%rax, %rdi
	call	puts@PLT
	movl	$0, %eax
	jmp	.L93
.L92:
	cmpq	$0, -1056(%rbp)
	jne	.L94
	leaq	.LC10(%rip), %rax
	movq	%rax, %rdi
	call	puts@PLT
	movl	$0, %eax
	jmp	.L93
.L94:
	movq	-1048(%rbp), %rax
	movq	32(%rax), %rax
	movl	24(%rax), %eax
	testl	%eax, %eax
	jne	.L95
	leaq	.LC11(%rip), %rax
	movq	%rax, %rdi
	call	puts@PLT
	movl	$0, %eax
	jmp	.L93
.L95:
	movl	-1060(%rbp), %eax
	cltq
	imulq	$420, %rax, %rax
	leaq	408+formatTable(%rip), %rdx
	movl	(%rax,%rdx), %eax
	testl	%eax, %eax
	jne	.L96
	movq	-1048(%rbp), %rax
	movq	%rax, %rdi
	call	emb_pattern_end@PLT
.L96:
	movq	-1056(%rbp), %rax
	leaq	.LC12(%rip), %rdx
	movq	%rdx, %rsi
	movq	%rax, %rdi
	call	fopen@PLT
	movq	%rax, -32(%rbp)
	cmpq	$0, -32(%rbp)
	jne	.L97
	movq	-1056(%rbp), %rax
	movq	%rax, %rsi
	leaq	.LC13(%rip), %rax
	movq	%rax, %rdi
	movl	$0, %eax
	call	printf@PLT
	movl	$0, %eax
	jmp	.L93
.L97:
	cmpl	$60, -1060(%rbp)
	ja	.L163
	movl	-1060(%rbp), %eax
	leaq	0(,%rax,4), %rdx
	leaq	.L100(%rip), %rax
	movl	(%rdx,%rax), %eax
	cltq
	leaq	.L100(%rip), %rdx
	addq	%rdx, %rax
	jmp	*%rax
	.section	.rodata
	.align 4
	.align 4
.L100:
	.long	.L160-.L100
	.long	.L159-.L100
	.long	.L158-.L100
	.long	.L157-.L100
	.long	.L156-.L100
	.long	.L155-.L100
	.long	.L154-.L100
	.long	.L153-.L100
	.long	.L152-.L100
	.long	.L151-.L100
	.long	.L150-.L100
	.long	.L149-.L100
	.long	.L148-.L100
	.long	.L147-.L100
	.long	.L146-.L100
	.long	.L145-.L100
	.long	.L144-.L100
	.long	.L143-.L100
	.long	.L142-.L100
	.long	.L141-.L100
	.long	.L140-.L100
	.long	.L139-.L100
	.long	.L138-.L100
	.long	.L137-.L100
	.long	.L136-.L100
	.long	.L135-.L100
	.long	.L134-.L100
	.long	.L133-.L100
	.long	.L132-.L100
	.long	.L131-.L100
	.long	.L130-.L100
	.long	.L129-.L100
	.long	.L128-.L100
	.long	.L127-.L100
	.long	.L126-.L100
	.long	.L125-.L100
	.long	.L124-.L100
	.long	.L123-.L100
	.long	.L122-.L100
	.long	.L121-.L100
	.long	.L120-.L100
	.long	.L119-.L100
	.long	.L118-.L100
	.long	.L117-.L100
	.long	.L116-.L100
	.long	.L115-.L100
	.long	.L114-.L100
	.long	.L113-.L100
	.long	.L112-.L100
	.long	.L111-.L100
	.long	.L110-.L100
	.long	.L109-.L100
	.long	.L108-.L100
	.long	.L107-.L100
	.long	.L106-.L100
	.long	.L105-.L100
	.long	.L104-.L100
	.long	.L103-.L100
	.long	.L102-.L100
	.long	.L101-.L100
	.long	.L99-.L100
	.text
.L160:
	movq	-32(%rbp), %rdx
	movq	-1048(%rbp), %rax
	movq	%rdx, %rsi
	movq	%rax, %rdi
	call	write100
	movsbl	%al, %eax
	movl	%eax, -20(%rbp)
	jmp	.L161
.L159:
	movq	-32(%rbp), %rdx
	movq	-1048(%rbp), %rax
	movq	%rdx, %rsi
	movq	%rax, %rdi
	call	write10o
	movsbl	%al, %eax
	movl	%eax, -20(%rbp)
	jmp	.L161
.L158:
	movq	-32(%rbp), %rdx
	movq	-1048(%rbp), %rax
	movq	%rdx, %rsi
	movq	%rax, %rdi
	call	writeArt
	movsbl	%al, %eax
	movl	%eax, -20(%rbp)
	jmp	.L161
.L157:
	movq	-32(%rbp), %rdx
	movq	-1048(%rbp), %rax
	movq	%rdx, %rsi
	movq	%rax, %rdi
	call	writeBmc
	movsbl	%al, %eax
	movl	%eax, -20(%rbp)
	jmp	.L161
.L156:
	movq	-32(%rbp), %rdx
	movq	-1048(%rbp), %rax
	movq	%rdx, %rsi
	movq	%rax, %rdi
	call	writeBro
	movsbl	%al, %eax
	movl	%eax, -20(%rbp)
	jmp	.L161
.L155:
	movq	-32(%rbp), %rdx
	movq	-1048(%rbp), %rax
	movq	%rdx, %rsi
	movq	%rax, %rdi
	call	writeCnd
	movsbl	%al, %eax
	movl	%eax, -20(%rbp)
	jmp	.L161
.L154:
	movq	-32(%rbp), %rdx
	movq	-1048(%rbp), %rax
	movq	%rdx, %rsi
	movq	%rax, %rdi
	call	writeCol
	movsbl	%al, %eax
	movl	%eax, -20(%rbp)
	jmp	.L161
.L153:
	movq	-32(%rbp), %rdx
	movq	-1048(%rbp), %rax
	movq	%rdx, %rsi
	movq	%rax, %rdi
	call	writeCsd
	movsbl	%al, %eax
	movl	%eax, -20(%rbp)
	jmp	.L161
.L152:
	movq	-32(%rbp), %rdx
	movq	-1048(%rbp), %rax
	movq	%rdx, %rsi
	movq	%rax, %rdi
	call	writeCsv
	movsbl	%al, %eax
	movl	%eax, -20(%rbp)
	jmp	.L161
.L151:
	movq	-32(%rbp), %rdx
	movq	-1048(%rbp), %rax
	movq	%rdx, %rsi
	movq	%rax, %rdi
	call	writeDat
	movsbl	%al, %eax
	movl	%eax, -20(%rbp)
	jmp	.L161
.L150:
	movq	-32(%rbp), %rdx
	movq	-1048(%rbp), %rax
	movq	%rdx, %rsi
	movq	%rax, %rdi
	call	writeDem
	movsbl	%al, %eax
	movl	%eax, -20(%rbp)
	jmp	.L161
.L149:
	movq	-32(%rbp), %rdx
	movq	-1048(%rbp), %rax
	movq	%rdx, %rsi
	movq	%rax, %rdi
	call	writeDsb
	movsbl	%al, %eax
	movl	%eax, -20(%rbp)
	jmp	.L161
.L148:
	movq	-32(%rbp), %rdx
	movq	-1048(%rbp), %rax
	movq	%rdx, %rsi
	movq	%rax, %rdi
	call	writeDst
	movsbl	%al, %eax
	movl	%eax, -20(%rbp)
	jmp	.L161
.L147:
	movq	-32(%rbp), %rdx
	movq	-1048(%rbp), %rax
	movq	%rdx, %rsi
	movq	%rax, %rdi
	call	writeDsz
	movsbl	%al, %eax
	movl	%eax, -20(%rbp)
	jmp	.L161
.L146:
	movq	-32(%rbp), %rdx
	movq	-1048(%rbp), %rax
	movq	%rdx, %rsi
	movq	%rax, %rdi
	call	writeDxf
	movsbl	%al, %eax
	movl	%eax, -20(%rbp)
	jmp	.L161
.L145:
	movq	-32(%rbp), %rdx
	movq	-1048(%rbp), %rax
	movq	%rdx, %rsi
	movq	%rax, %rdi
	call	writeEdr
	movsbl	%al, %eax
	movl	%eax, -20(%rbp)
	jmp	.L161
.L144:
	movq	-32(%rbp), %rdx
	movq	-1048(%rbp), %rax
	movq	%rdx, %rsi
	movq	%rax, %rdi
	call	writeEmd
	movsbl	%al, %eax
	movl	%eax, -20(%rbp)
	jmp	.L161
.L143:
	movq	-32(%rbp), %rdx
	movq	-1048(%rbp), %rax
	movq	%rdx, %rsi
	movq	%rax, %rdi
	call	writeExp
	movsbl	%al, %eax
	movl	%eax, -20(%rbp)
	jmp	.L161
.L142:
	movq	-32(%rbp), %rdx
	movq	-1048(%rbp), %rax
	movq	%rdx, %rsi
	movq	%rax, %rdi
	call	writeExy
	movsbl	%al, %eax
	movl	%eax, -20(%rbp)
	jmp	.L161
.L141:
	movq	-32(%rbp), %rdx
	movq	-1048(%rbp), %rax
	movq	%rdx, %rsi
	movq	%rax, %rdi
	call	writeEys
	movsbl	%al, %eax
	movl	%eax, -20(%rbp)
	jmp	.L161
.L140:
	movq	-32(%rbp), %rdx
	movq	-1048(%rbp), %rax
	movq	%rdx, %rsi
	movq	%rax, %rdi
	call	writeFxy
	movsbl	%al, %eax
	movl	%eax, -20(%rbp)
	jmp	.L161
.L139:
	movq	-32(%rbp), %rdx
	movq	-1048(%rbp), %rax
	movq	%rdx, %rsi
	movq	%rax, %rdi
	call	writeGc
	movsbl	%al, %eax
	movl	%eax, -20(%rbp)
	jmp	.L161
.L138:
	movq	-32(%rbp), %rdx
	movq	-1048(%rbp), %rax
	movq	%rdx, %rsi
	movq	%rax, %rdi
	call	writeGnc
	movsbl	%al, %eax
	movl	%eax, -20(%rbp)
	jmp	.L161
.L137:
	movq	-32(%rbp), %rdx
	movq	-1048(%rbp), %rax
	movq	%rdx, %rsi
	movq	%rax, %rdi
	call	writeGt
	movsbl	%al, %eax
	movl	%eax, -20(%rbp)
	jmp	.L161
.L136:
	movq	-32(%rbp), %rdx
	movq	-1048(%rbp), %rax
	movq	%rdx, %rsi
	movq	%rax, %rdi
	call	writeHus
	movsbl	%al, %eax
	movl	%eax, -20(%rbp)
	jmp	.L161
.L135:
	movq	-32(%rbp), %rdx
	movq	-1048(%rbp), %rax
	movq	%rdx, %rsi
	movq	%rax, %rdi
	call	writeInb
	movsbl	%al, %eax
	movl	%eax, -20(%rbp)
	jmp	.L161
.L134:
	movq	-32(%rbp), %rdx
	movq	-1048(%rbp), %rax
	movq	%rdx, %rsi
	movq	%rax, %rdi
	call	writeInf
	movsbl	%al, %eax
	movl	%eax, -20(%rbp)
	jmp	.L161
.L133:
	movq	-32(%rbp), %rdx
	movq	-1048(%rbp), %rax
	movq	%rdx, %rsi
	movq	%rax, %rdi
	call	writeJef
	movsbl	%al, %eax
	movl	%eax, -20(%rbp)
	jmp	.L161
.L132:
	movq	-32(%rbp), %rdx
	movq	-1048(%rbp), %rax
	movq	%rdx, %rsi
	movq	%rax, %rdi
	call	writeKsm
	movsbl	%al, %eax
	movl	%eax, -20(%rbp)
	jmp	.L161
.L131:
	movq	-32(%rbp), %rdx
	movq	-1048(%rbp), %rax
	movq	%rdx, %rsi
	movq	%rax, %rdi
	call	writeMax
	movsbl	%al, %eax
	movl	%eax, -20(%rbp)
	jmp	.L161
.L130:
	movq	-32(%rbp), %rdx
	movq	-1048(%rbp), %rax
	movq	%rdx, %rsi
	movq	%rax, %rdi
	call	writeMit
	movsbl	%al, %eax
	movl	%eax, -20(%rbp)
	jmp	.L161
.L129:
	movq	-32(%rbp), %rdx
	movq	-1048(%rbp), %rax
	movq	%rdx, %rsi
	movq	%rax, %rdi
	call	writeNew
	movsbl	%al, %eax
	movl	%eax, -20(%rbp)
	jmp	.L161
.L128:
	movq	-32(%rbp), %rdx
	movq	-1048(%rbp), %rax
	movq	%rdx, %rsi
	movq	%rax, %rdi
	call	writeOfm
	movsbl	%al, %eax
	movl	%eax, -20(%rbp)
	jmp	.L161
.L127:
	movq	-32(%rbp), %rdx
	movq	-1048(%rbp), %rax
	movq	%rdx, %rsi
	movq	%rax, %rdi
	call	writePcd
	movsbl	%al, %eax
	movl	%eax, -20(%rbp)
	jmp	.L161
.L126:
	movq	-32(%rbp), %rdx
	movq	-1048(%rbp), %rax
	movq	%rdx, %rsi
	movq	%rax, %rdi
	call	writePcm
	movsbl	%al, %eax
	movl	%eax, -20(%rbp)
	jmp	.L161
.L125:
	movq	-32(%rbp), %rdx
	movq	-1048(%rbp), %rax
	movq	%rdx, %rsi
	movq	%rax, %rdi
	call	writePcq
	movsbl	%al, %eax
	movl	%eax, -20(%rbp)
	jmp	.L161
.L124:
	movq	-32(%rbp), %rdx
	movq	-1048(%rbp), %rax
	movq	%rdx, %rsi
	movq	%rax, %rdi
	call	writePcs
	movsbl	%al, %eax
	movl	%eax, -20(%rbp)
	jmp	.L161
.L123:
	movq	-32(%rbp), %rdx
	movq	-1056(%rbp), %rcx
	movq	-1048(%rbp), %rax
	movq	%rcx, %rsi
	movq	%rax, %rdi
	call	writePec
	movsbl	%al, %eax
	movl	%eax, -20(%rbp)
	jmp	.L161
.L122:
	movq	-32(%rbp), %rdx
	movq	-1048(%rbp), %rax
	movq	%rdx, %rsi
	movq	%rax, %rdi
	call	writePel
	movsbl	%al, %eax
	movl	%eax, -20(%rbp)
	jmp	.L161
.L121:
	movq	-32(%rbp), %rdx
	movq	-1048(%rbp), %rax
	movq	%rdx, %rsi
	movq	%rax, %rdi
	call	writePem
	movsbl	%al, %eax
	movl	%eax, -20(%rbp)
	jmp	.L161
.L120:
	movq	-32(%rbp), %rdx
	movq	-1056(%rbp), %rcx
	movq	-1048(%rbp), %rax
	movq	%rcx, %rsi
	movq	%rax, %rdi
	call	writePes
	movsbl	%al, %eax
	movl	%eax, -20(%rbp)
	jmp	.L161
.L119:
	movq	-32(%rbp), %rdx
	movq	-1048(%rbp), %rax
	movq	%rdx, %rsi
	movq	%rax, %rdi
	call	writePhb
	movsbl	%al, %eax
	movl	%eax, -20(%rbp)
	jmp	.L161
.L118:
	movq	-32(%rbp), %rdx
	movq	-1048(%rbp), %rax
	movq	%rdx, %rsi
	movq	%rax, %rdi
	call	writePhc
	movsbl	%al, %eax
	movl	%eax, -20(%rbp)
	jmp	.L161
.L117:
	movq	-32(%rbp), %rdx
	movq	-1048(%rbp), %rax
	movq	%rdx, %rsi
	movq	%rax, %rdi
	call	writePlt
	movsbl	%al, %eax
	movl	%eax, -20(%rbp)
	jmp	.L161
.L116:
	movq	-32(%rbp), %rdx
	movq	-1048(%rbp), %rax
	movq	%rdx, %rsi
	movq	%rax, %rdi
	call	writeRgb
	movsbl	%al, %eax
	movl	%eax, -20(%rbp)
	jmp	.L161
.L115:
	movq	-32(%rbp), %rdx
	movq	-1048(%rbp), %rax
	movq	%rdx, %rsi
	movq	%rax, %rdi
	call	writeSew
	movsbl	%al, %eax
	movl	%eax, -20(%rbp)
	jmp	.L161
.L114:
	movq	-32(%rbp), %rdx
	movq	-1048(%rbp), %rax
	movq	%rdx, %rsi
	movq	%rax, %rdi
	call	writeShv
	movsbl	%al, %eax
	movl	%eax, -20(%rbp)
	jmp	.L161
.L113:
	movq	-32(%rbp), %rdx
	movq	-1048(%rbp), %rax
	movq	%rdx, %rsi
	movq	%rax, %rdi
	call	writeSst
	movsbl	%al, %eax
	movl	%eax, -20(%rbp)
	jmp	.L161
.L112:
	movq	-32(%rbp), %rdx
	movq	-1048(%rbp), %rax
	movq	%rdx, %rsi
	movq	%rax, %rdi
	call	writeStx
	movsbl	%al, %eax
	movl	%eax, -20(%rbp)
	jmp	.L161
.L111:
	movq	-32(%rbp), %rdx
	movq	-1048(%rbp), %rax
	movq	%rdx, %rsi
	movq	%rax, %rdi
	call	writeSvg
	movsbl	%al, %eax
	movl	%eax, -20(%rbp)
	jmp	.L161
.L110:
	movq	-32(%rbp), %rdx
	movq	-1048(%rbp), %rax
	movq	%rdx, %rsi
	movq	%rax, %rdi
	call	writeT01
	movsbl	%al, %eax
	movl	%eax, -20(%rbp)
	jmp	.L161
.L109:
	movq	-32(%rbp), %rdx
	movq	-1048(%rbp), %rax
	movq	%rdx, %rsi
	movq	%rax, %rdi
	call	writeT09
	movsbl	%al, %eax
	movl	%eax, -20(%rbp)
	jmp	.L161
.L108:
	movq	-32(%rbp), %rdx
	movq	-1048(%rbp), %rax
	movq	%rdx, %rsi
	movq	%rax, %rdi
	call	writeTap
	movsbl	%al, %eax
	movl	%eax, -20(%rbp)
	jmp	.L161
.L107:
	movq	-32(%rbp), %rdx
	movq	-1048(%rbp), %rax
	movq	%rdx, %rsi
	movq	%rax, %rdi
	call	writeThr
	movsbl	%al, %eax
	movl	%eax, -20(%rbp)
	jmp	.L161
.L106:
	movq	-32(%rbp), %rdx
	movq	-1048(%rbp), %rax
	movq	%rdx, %rsi
	movq	%rax, %rdi
	call	writeTxt
	movsbl	%al, %eax
	movl	%eax, -20(%rbp)
	jmp	.L161
.L105:
	movq	-32(%rbp), %rdx
	movq	-1048(%rbp), %rax
	movq	%rdx, %rsi
	movq	%rax, %rdi
	call	writeU00
	movsbl	%al, %eax
	movl	%eax, -20(%rbp)
	jmp	.L161
.L104:
	movq	-32(%rbp), %rdx
	movq	-1048(%rbp), %rax
	movq	%rdx, %rsi
	movq	%rax, %rdi
	call	writeU01
	movsbl	%al, %eax
	movl	%eax, -20(%rbp)
	jmp	.L161
.L103:
	movq	-32(%rbp), %rdx
	movq	-1048(%rbp), %rax
	movq	%rdx, %rsi
	movq	%rax, %rdi
	call	writeVip
	movsbl	%al, %eax
	movl	%eax, -20(%rbp)
	jmp	.L161
.L102:
	movq	-32(%rbp), %rdx
	movq	-1048(%rbp), %rax
	movq	%rdx, %rsi
	movq	%rax, %rdi
	call	writeVp3
	movsbl	%al, %eax
	movl	%eax, -20(%rbp)
	jmp	.L161
.L101:
	movq	-32(%rbp), %rdx
	movq	-1048(%rbp), %rax
	movq	%rdx, %rsi
	movq	%rax, %rdi
	call	writeXxx
	movsbl	%al, %eax
	movl	%eax, -20(%rbp)
	jmp	.L161
.L99:
	movq	-32(%rbp), %rdx
	movq	-1048(%rbp), %rax
	movq	%rdx, %rsi
	movq	%rax, %rdi
	call	writeZsk
	movsbl	%al, %eax
	movl	%eax, -20(%rbp)
	jmp	.L161
.L163:
	nop
.L161:
	movl	-1060(%rbp), %eax
	cltq
	imulq	$420, %rax, %rax
	leaq	416+formatTable(%rip), %rdx
	movl	(%rax,%rdx), %eax
	testl	%eax, %eax
	je	.L162
	movq	-1056(%rbp), %rcx
	leaq	-1040(%rbp), %rax
	movl	$200, %edx
	movq	%rcx, %rsi
	movq	%rax, %rdi
	call	strncpy@PLT
	movq	-1056(%rbp), %rax
	movq	%rax, %rdi
	call	strlen@PLT
	movl	%eax, %ebx
	movl	-1060(%rbp), %eax
	cltq
	imulq	$420, %rax, %rax
	leaq	formatTable(%rip), %rdx
	addq	%rdx, %rax
	movq	%rax, %rdi
	call	strlen@PLT
	movl	%eax, %edx
	movl	%ebx, %eax
	subl	%edx, %eax
	movl	%eax, -36(%rbp)
	movl	-36(%rbp), %eax
	cltq
	movb	$0, -1040(%rbp,%rax)
	leaq	-1040(%rbp), %rax
	movq	%rax, %rdi
	call	strlen@PLT
	movq	%rax, %rdx
	leaq	-1040(%rbp), %rax
	addq	%rdx, %rax
	movl	$1650946606, (%rax)
	movb	$0, 4(%rax)
	leaq	-1040(%rbp), %rcx
	movq	-1048(%rbp), %rax
	movl	$44, %edx
	movq	%rcx, %rsi
	movq	%rax, %rdi
	call	emb_pattern_write
.L162:
	movq	-32(%rbp), %rax
	movq	%rax, %rdi
	call	fclose@PLT
	movl	-20(%rbp), %eax
.L93:
	movq	-8(%rbp), %rbx
	leave
	.cfi_def_cfa 7, 8
	ret
	.cfi_endproc
.LFE10:
	.size	emb_pattern_write, .-emb_pattern_write
	.section	.rodata
	.align 8
.LC14:
	.string	"ERROR: convert(), unsupported read file type: %s\n"
	.text
	.globl	emb_pattern_readAuto
	.type	emb_pattern_readAuto, @function
emb_pattern_readAuto:
.LFB11:
	.cfi_startproc
	pushq	%rbp
	.cfi_def_cfa_offset 16
	.cfi_offset 6, -16
	movq	%rsp, %rbp
	.cfi_def_cfa_register 6
	subq	$32, %rsp
	movq	%rdi, -24(%rbp)
	movq	%rsi, -32(%rbp)
	movq	-32(%rbp), %rax
	movq	%rax, %rdi
	call	emb_identify_format
	movl	%eax, -4(%rbp)
	cmpl	$0, -4(%rbp)
	jns	.L165
	movq	-32(%rbp), %rax
	movq	%rax, %rsi
	leaq	.LC14(%rip), %rax
	movq	%rax, %rdi
	movl	$0, %eax
	call	printf@PLT
	movq	-24(%rbp), %rax
	movq	%rax, %rdi
	call	emb_pattern_free@PLT
	movl	$0, %eax
	jmp	.L166
.L165:
	movl	-4(%rbp), %edx
	movq	-32(%rbp), %rcx
	movq	-24(%rbp), %rax
	movq	%rcx, %rsi
	movq	%rax, %rdi
	call	emb_pattern_read
.L166:
	leave
	.cfi_def_cfa 7, 8
	ret
	.cfi_endproc
.LFE11:
	.size	emb_pattern_readAuto, .-emb_pattern_readAuto
	.section	.rodata
.LC15:
	.string	"emb_pattern_writeAuto %d %s\n"
	.align 8
.LC16:
	.string	"ERROR: convert(), unsupported write file type: %s\n"
	.text
	.globl	emb_pattern_writeAuto
	.type	emb_pattern_writeAuto, @function
emb_pattern_writeAuto:
.LFB12:
	.cfi_startproc
	pushq	%rbp
	.cfi_def_cfa_offset 16
	.cfi_offset 6, -16
	movq	%rsp, %rbp
	.cfi_def_cfa_register 6
	subq	$32, %rsp
	movq	%rdi, -24(%rbp)
	movq	%rsi, -32(%rbp)
	movq	-32(%rbp), %rax
	movq	%rax, %rdi
	call	emb_identify_format
	movl	%eax, -4(%rbp)
	movq	-32(%rbp), %rdx
	movl	-4(%rbp), %eax
	movl	%eax, %esi
	leaq	.LC15(%rip), %rax
	movq	%rax, %rdi
	movl	$0, %eax
	call	printf@PLT
	cmpl	$0, -4(%rbp)
	jns	.L168
	movq	-32(%rbp), %rax
	movq	%rax, %rsi
	leaq	.LC16(%rip), %rax
	movq	%rax, %rdi
	movl	$0, %eax
	call	printf@PLT
	movq	-24(%rbp), %rax
	movq	%rax, %rdi
	call	emb_pattern_free@PLT
	movl	$0, %eax
	jmp	.L169
.L168:
	movl	-4(%rbp), %edx
	movq	-32(%rbp), %rcx
	movq	-24(%rbp), %rax
	movq	%rcx, %rsi
	movq	%rax, %rdi
	call	emb_pattern_write
.L169:
	leave
	.cfi_def_cfa 7, 8
	ret
	.cfi_endproc
.LFE12:
	.size	emb_pattern_writeAuto, .-emb_pattern_writeAuto
	.globl	toyota_position_encode
	.type	toyota_position_encode, @function
toyota_position_encode:
.LFB13:
	.cfi_startproc
	pushq	%rbp
	.cfi_def_cfa_offset 16
	.cfi_offset 6, -16
	movq	%rsp, %rbp
	.cfi_def_cfa_register 6
	subq	$16, %rsp
	movss	%xmm0, -4(%rbp)
	pxor	%xmm0, %xmm0
	comiss	-4(%rbp), %xmm0
	jbe	.L175
	movss	-4(%rbp), %xmm1
	movss	.LC18(%rip), %xmm0
	mulss	%xmm0, %xmm1
	movd	%xmm1, %eax
	movd	%eax, %xmm0
	call	emb_round@PLT
	movl	%eax, %edx
	movl	$-128, %eax
	subl	%edx, %eax
	jmp	.L173
.L175:
	movss	-4(%rbp), %xmm1
	movss	.LC18(%rip), %xmm0
	mulss	%xmm0, %xmm1
	movd	%xmm1, %eax
	movd	%eax, %xmm0
	call	emb_round@PLT
.L173:
	leave
	.cfi_def_cfa 7, 8
	ret
	.cfi_endproc
.LFE13:
	.size	toyota_position_encode, .-toyota_position_encode
	.globl	toyota_position_decode
	.type	toyota_position_decode, @function
toyota_position_decode:
.LFB14:
	.cfi_startproc
	pushq	%rbp
	.cfi_def_cfa_offset 16
	.cfi_offset 6, -16
	movq	%rsp, %rbp
	.cfi_def_cfa_register 6
	movl	%edi, %eax
	movb	%al, -4(%rbp)
	cmpb	$-128, -4(%rbp)
	jbe	.L177
	movzbl	-4(%rbp), %eax
	addl	$-128, %eax
	pxor	%xmm1, %xmm1
	cvtsi2sdl	%eax, %xmm1
	movsd	.LC19(%rip), %xmm0
	mulsd	%xmm1, %xmm0
	cvtsd2ss	%xmm0, %xmm0
	jmp	.L178
.L177:
	movzbl	-4(%rbp), %eax
	pxor	%xmm1, %xmm1
	cvtsi2sdl	%eax, %xmm1
	movsd	.LC20(%rip), %xmm0
	mulsd	%xmm1, %xmm0
	cvtsd2ss	%xmm0, %xmm0
.L178:
	popq	%rbp
	.cfi_def_cfa 7, 8
	ret
	.cfi_endproc
.LFE14:
	.size	toyota_position_decode, .-toyota_position_decode
	.globl	read100
	.type	read100, @function
read100:
.LFB15:
	.cfi_startproc
	pushq	%rbp
	.cfi_def_cfa_offset 16
	.cfi_offset 6, -16
	movq	%rsp, %rbp
	.cfi_def_cfa_register 6
	subq	$48, %rsp
	movq	%rdi, -40(%rbp)
	movq	%rsi, -48(%rbp)
	jmp	.L180
.L183:
	movzbl	-8(%rbp), %eax
	movzbl	%al, %eax
	movl	%eax, %edi
	call	toyota_position_decode
	movd	%xmm0, %eax
	movl	%eax, -28(%rbp)
	movzbl	-7(%rbp), %eax
	movzbl	%al, %eax
	movl	%eax, %edi
	call	toyota_position_decode
	movd	%xmm0, %eax
	movl	%eax, -24(%rbp)
	movl	$0, -32(%rbp)
	movzbl	-10(%rbp), %eax
	movzbl	%al, %eax
	andl	$1, %eax
	testl	%eax, %eax
	jne	.L181
	movl	$4, -32(%rbp)
.L181:
	movzbl	-10(%rbp), %eax
	cmpb	$31, %al
	jne	.L182
	movl	$16, -32(%rbp)
.L182:
	movl	-32(%rbp), %esi
	movss	-24(%rbp), %xmm0
	movl	-28(%rbp), %ecx
	movq	-40(%rbp), %rax
	movl	$1, %edx
	movaps	%xmm0, %xmm1
	movd	%ecx, %xmm0
	movq	%rax, %rdi
	call	emb_pattern_addStitchRel@PLT
.L180:
	movq	-48(%rbp), %rdx
	leaq	-10(%rbp), %rax
	movq	%rdx, %rcx
	movl	$3, %edx
	movl	$1, %esi
	movq	%rax, %rdi
	call	fread@PLT
	cmpq	$3, %rax
	je	.L183
	movl	$1, %eax
	leave
	.cfi_def_cfa 7, 8
	ret
	.cfi_endproc
.LFE15:
	.size	read100, .-read100
	.globl	write100
	.type	write100, @function
write100:
.LFB16:
	.cfi_startproc
	pushq	%rbp
	.cfi_def_cfa_offset 16
	.cfi_offset 6, -16
	movq	%rsp, %rbp
	.cfi_def_cfa_register 6
	subq	$80, %rsp
	movq	%rdi, -72(%rbp)
	movq	%rsi, -80(%rbp)
	movq	-72(%rbp), %rax
	movq	8(%rax), %rax
	movq	%rax, -12(%rbp)
	movl	$0, -4(%rbp)
	jmp	.L186
.L191:
	movq	-72(%rbp), %rax
	movq	32(%rax), %rax
	movq	8(%rax), %rax
	movl	-4(%rbp), %edx
	movslq	%edx, %rdx
	salq	$4, %rdx
	addq	%rdx, %rax
	movq	8(%rax), %rdx
	movq	(%rax), %rax
	movq	%rax, -48(%rbp)
	movq	%rdx, -40(%rbp)
	movss	-44(%rbp), %xmm0
	movss	-12(%rbp), %xmm1
	subss	%xmm1, %xmm0
	movss	%xmm0, -56(%rbp)
	movss	-40(%rbp), %xmm0
	movss	-8(%rbp), %xmm1
	subss	%xmm1, %xmm0
	movss	%xmm0, -52(%rbp)
	movq	-56(%rbp), %rdx
	movq	-12(%rbp), %rax
	movq	%rdx, %xmm1
	movq	%rax, %xmm0
	call	emb_vector_add@PLT
	movq	%xmm0, %rax
	movq	%rax, -12(%rbp)
	movb	$0, -22(%rbp)
	movb	$0, -21(%rbp)
	movl	-56(%rbp), %eax
	movd	%eax, %xmm0
	call	toyota_position_encode
	movb	%al, -20(%rbp)
	movl	-52(%rbp), %eax
	movd	%eax, %xmm0
	call	toyota_position_encode
	movb	%al, -19(%rbp)
	movl	-48(%rbp), %eax
	andl	$4, %eax
	testl	%eax, %eax
	jne	.L187
	movzbl	-22(%rbp), %eax
	orl	$1, %eax
	movb	%al, -22(%rbp)
.L187:
	movl	-48(%rbp), %eax
	andl	$16, %eax
	testl	%eax, %eax
	je	.L188
	movb	$31, -22(%rbp)
.L188:
	movq	-80(%rbp), %rdx
	leaq	-22(%rbp), %rax
	movq	%rdx, %rcx
	movl	$4, %edx
	movl	$1, %esi
	movq	%rax, %rdi
	call	fwrite@PLT
	cmpq	$4, %rax
	je	.L189
	movl	$0, %eax
	jmp	.L192
.L189:
	addl	$1, -4(%rbp)
.L186:
	movq	-72(%rbp), %rax
	movq	32(%rax), %rax
	movl	24(%rax), %eax
	cmpl	%eax, -4(%rbp)
	jl	.L191
	movl	$1, %eax
.L192:
	leave
	.cfi_def_cfa 7, 8
	ret
	.cfi_endproc
.LFE16:
	.size	write100, .-write100
	.globl	read10o
	.type	read10o, @function
read10o:
.LFB17:
	.cfi_startproc
	pushq	%rbp
	.cfi_def_cfa_offset 16
	.cfi_offset 6, -16
	movq	%rsp, %rbp
	.cfi_def_cfa_register 6
	subq	$48, %rsp
	movq	%rdi, -40(%rbp)
	movq	%rsi, -48(%rbp)
	jmp	.L194
.L201:
	movzbl	-11(%rbp), %eax
	movb	%al, -1(%rbp)
	movzbl	-10(%rbp), %eax
	movzbl	%al, %eax
	pxor	%xmm1, %xmm1
	cvtsi2sdl	%eax, %xmm1
	movsd	.LC20(%rip), %xmm0
	mulsd	%xmm1, %xmm0
	cvtsd2ss	%xmm0, %xmm0
	movss	%xmm0, -24(%rbp)
	movzbl	-9(%rbp), %eax
	movzbl	%al, %eax
	pxor	%xmm1, %xmm1
	cvtsi2sdl	%eax, %xmm1
	movsd	.LC20(%rip), %xmm0
	mulsd	%xmm1, %xmm0
	cvtsd2ss	%xmm0, %xmm0
	movss	%xmm0, -28(%rbp)
	movl	$0, -32(%rbp)
	movzbl	-1(%rbp), %eax
	andl	$32, %eax
	testl	%eax, %eax
	je	.L195
	movss	-28(%rbp), %xmm0
	movss	.LC21(%rip), %xmm1
	xorps	%xmm1, %xmm0
	movss	%xmm0, -28(%rbp)
.L195:
	movzbl	-1(%rbp), %eax
	andl	$64, %eax
	testl	%eax, %eax
	je	.L196
	movss	-24(%rbp), %xmm0
	movss	.LC21(%rip), %xmm1
	xorps	%xmm1, %xmm0
	movss	%xmm0, -24(%rbp)
.L196:
	movzbl	-1(%rbp), %eax
	andl	$1, %eax
	testl	%eax, %eax
	je	.L197
	movl	$2, -32(%rbp)
.L197:
	movzbl	-1(%rbp), %eax
	andl	$5, %eax
	cmpl	$5, %eax
	jne	.L198
	movl	$4, -32(%rbp)
.L198:
	cmpb	$-8, -1(%rbp)
	je	.L199
	cmpb	$-111, -1(%rbp)
	je	.L199
	cmpb	$-121, -1(%rbp)
	jne	.L200
.L199:
	movl	$16, -32(%rbp)
.L200:
	movl	-32(%rbp), %esi
	movss	-24(%rbp), %xmm0
	movl	-28(%rbp), %ecx
	movq	-40(%rbp), %rax
	movl	$1, %edx
	movaps	%xmm0, %xmm1
	movd	%ecx, %xmm0
	movq	%rax, %rdi
	call	emb_pattern_addStitchRel@PLT
.L194:
	movq	-48(%rbp), %rdx
	leaq	-11(%rbp), %rax
	movq	%rdx, %rcx
	movl	$3, %edx
	movl	$1, %esi
	movq	%rax, %rdi
	call	fread@PLT
	cmpq	$3, %rax
	je	.L201
	movl	$1, %eax
	leave
	.cfi_def_cfa 7, 8
	ret
	.cfi_endproc
.LFE17:
	.size	read10o, .-read10o
	.globl	write10o
	.type	write10o, @function
write10o:
.LFB18:
	.cfi_startproc
	pushq	%rbp
	.cfi_def_cfa_offset 16
	.cfi_offset 6, -16
	movq	%rsp, %rbp
	.cfi_def_cfa_register 6
	subq	$48, %rsp
	movq	%rdi, -40(%rbp)
	movq	%rsi, -48(%rbp)
	movl	$0, -4(%rbp)
	jmp	.L204
.L216:
	movq	-40(%rbp), %rax
	movq	32(%rax), %rax
	movq	8(%rax), %rax
	movl	-4(%rbp), %edx
	movslq	%edx, %rdx
	salq	$4, %rdx
	addq	%rdx, %rax
	movq	8(%rax), %rdx
	movq	(%rax), %rax
	movq	%rax, -32(%rbp)
	movq	%rdx, -24(%rbp)
	movb	$0, -14(%rbp)
	movb	$0, -13(%rbp)
	movb	$0, -12(%rbp)
	movss	-28(%rbp), %xmm1
	pxor	%xmm0, %xmm0
	comiss	%xmm1, %xmm0
	jbe	.L219
	movzbl	-12(%rbp), %eax
	orl	$32, %eax
	movb	%al, -12(%rbp)
	movss	-28(%rbp), %xmm0
	movss	.LC21(%rip), %xmm1
	xorps	%xmm1, %xmm0
	cvttss2sil	%xmm0, %eax
	movb	%al, -14(%rbp)
	jmp	.L207
.L219:
	movss	-28(%rbp), %xmm0
	cvttss2sil	%xmm0, %eax
	movb	%al, -14(%rbp)
.L207:
	movss	-24(%rbp), %xmm1
	pxor	%xmm0, %xmm0
	comiss	%xmm1, %xmm0
	jbe	.L220
	movzbl	-12(%rbp), %eax
	orl	$64, %eax
	movb	%al, -12(%rbp)
	movss	-24(%rbp), %xmm0
	movss	.LC21(%rip), %xmm1
	xorps	%xmm1, %xmm0
	cvttss2sil	%xmm0, %eax
	movb	%al, -13(%rbp)
	jmp	.L210
.L220:
	movss	-24(%rbp), %xmm0
	cvttss2sil	%xmm0, %eax
	movb	%al, -13(%rbp)
.L210:
	movl	-32(%rbp), %eax
	cmpl	$2, %eax
	jne	.L211
	movzbl	-12(%rbp), %eax
	orl	$1, %eax
	movb	%al, -12(%rbp)
.L211:
	movl	-32(%rbp), %eax
	cmpl	$4, %eax
	jne	.L212
	movzbl	-12(%rbp), %eax
	orl	$5, %eax
	movb	%al, -12(%rbp)
.L212:
	movl	-32(%rbp), %eax
	cmpl	$16, %eax
	jne	.L213
	movb	$-8, -12(%rbp)
.L213:
	movq	-48(%rbp), %rdx
	leaq	-14(%rbp), %rax
	movq	%rdx, %rcx
	movl	$3, %edx
	movl	$1, %esi
	movq	%rax, %rdi
	call	fwrite@PLT
	cmpq	$3, %rax
	je	.L214
	movl	$0, %eax
	jmp	.L215
.L214:
	addl	$1, -4(%rbp)
.L204:
	movq	-40(%rbp), %rax
	movq	32(%rax), %rax
	movl	24(%rax), %eax
	cmpl	%eax, -4(%rbp)
	jl	.L216
	movl	$1, %eax
.L215:
	leave
	.cfi_def_cfa 7, 8
	ret
	.cfi_endproc
.LFE18:
	.size	write10o, .-write10o
	.section	.rodata
	.align 8
.LC22:
	.string	"ERROR: readArt is not supported yet."
.LC23:
	.string	"Cannot read %p %p\n"
	.text
	.globl	readArt
	.type	readArt, @function
readArt:
.LFB19:
	.cfi_startproc
	pushq	%rbp
	.cfi_def_cfa_offset 16
	.cfi_offset 6, -16
	movq	%rsp, %rbp
	.cfi_def_cfa_register 6
	subq	$16, %rsp
	movq	%rdi, -8(%rbp)
	movq	%rsi, -16(%rbp)
	leaq	.LC22(%rip), %rax
	movq	%rax, %rdi
	call	puts@PLT
	movq	-16(%rbp), %rdx
	movq	-8(%rbp), %rax
	movq	%rax, %rsi
	leaq	.LC23(%rip), %rax
	movq	%rax, %rdi
	movl	$0, %eax
	call	printf@PLT
	movl	$0, %eax
	leave
	.cfi_def_cfa 7, 8
	ret
	.cfi_endproc
.LFE19:
	.size	readArt, .-readArt
	.section	.rodata
	.align 8
.LC24:
	.string	"ERROR: writeArt is not supported yet."
.LC25:
	.string	"Cannot write %p %p\n"
	.text
	.globl	writeArt
	.type	writeArt, @function
writeArt:
.LFB20:
	.cfi_startproc
	pushq	%rbp
	.cfi_def_cfa_offset 16
	.cfi_offset 6, -16
	movq	%rsp, %rbp
	.cfi_def_cfa_register 6
	subq	$16, %rsp
	movq	%rdi, -8(%rbp)
	movq	%rsi, -16(%rbp)
	leaq	.LC24(%rip), %rax
	movq	%rax, %rdi
	call	puts@PLT
	movq	-16(%rbp), %rdx
	movq	-8(%rbp), %rax
	movq	%rax, %rsi
	leaq	.LC25(%rip), %rax
	movq	%rax, %rdi
	movl	$0, %eax
	call	printf@PLT
	movl	$0, %eax
	leave
	.cfi_def_cfa 7, 8
	ret
	.cfi_endproc
.LFE20:
	.size	writeArt, .-writeArt
	.section	.rodata
	.align 8
.LC26:
	.string	"ERROR: readBmc is not supported."
	.text
	.globl	readBmc
	.type	readBmc, @function
readBmc:
.LFB21:
	.cfi_startproc
	pushq	%rbp
	.cfi_def_cfa_offset 16
	.cfi_offset 6, -16
	movq	%rsp, %rbp
	.cfi_def_cfa_register 6
	subq	$16, %rsp
	movq	%rdi, -8(%rbp)
	movq	%rsi, -16(%rbp)
	leaq	.LC26(%rip), %rax
	movq	%rax, %rdi
	call	puts@PLT
	movq	-16(%rbp), %rdx
	movq	-8(%rbp), %rax
	movq	%rax, %rsi
	leaq	.LC23(%rip), %rax
	movq	%rax, %rdi
	movl	$0, %eax
	call	printf@PLT
	movl	$0, %eax
	leave
	.cfi_def_cfa 7, 8
	ret
	.cfi_endproc
.LFE21:
	.size	readBmc, .-readBmc
	.section	.rodata
.LC27:
	.string	"writeBmc is not implemented"
	.text
	.globl	writeBmc
	.type	writeBmc, @function
writeBmc:
.LFB22:
	.cfi_startproc
	pushq	%rbp
	.cfi_def_cfa_offset 16
	.cfi_offset 6, -16
	movq	%rsp, %rbp
	.cfi_def_cfa_register 6
	subq	$16, %rsp
	movq	%rdi, -8(%rbp)
	movq	%rsi, -16(%rbp)
	leaq	.LC27(%rip), %rax
	movq	%rax, %rdi
	call	puts@PLT
	movq	-16(%rbp), %rdx
	movq	-8(%rbp), %rax
	movq	%rax, %rsi
	leaq	.LC25(%rip), %rax
	movq	%rax, %rdi
	movl	$0, %eax
	call	printf@PLT
	movl	$0, %eax
	leave
	.cfi_def_cfa 7, 8
	ret
	.cfi_endproc
.LFE22:
	.size	writeBmc, .-writeBmc
	.section	.rodata
.LC28:
	.string	"readBro: %s\n"
.LC29:
	.string	"ERROR"
	.text
	.globl	readBro
	.type	readBro, @function
readBro:
.LFB23:
	.cfi_startproc
	pushq	%rbp
	.cfi_def_cfa_offset 16
	.cfi_offset 6, -16
	movq	%rsp, %rbp
	.cfi_def_cfa_register 6
	subq	$80, %rsp
	movq	%rdi, -72(%rbp)
	movq	%rsi, -80(%rbp)
	leaq	-48(%rbp), %rax
	movq	%rax, -16(%rbp)
	movq	-80(%rbp), %rdx
	leaq	-48(%rbp), %rax
	movq	%rdx, %rcx
	movl	$19, %edx
	movl	$1, %esi
	movq	%rax, %rdi
	call	fread@PLT
	cmpq	$19, %rax
	je	.L230
	movl	$0, %eax
	jmp	.L243
.L230:
	addq	$3, -16(%rbp)
	movq	-16(%rbp), %rax
	movq	%rax, -24(%rbp)
	movq	-24(%rbp), %rax
	movq	%rax, %rsi
	leaq	.LC28(%rip), %rax
	movq	%rax, %rdi
	movl	$0, %eax
	call	printf@PLT
	movq	-80(%rbp), %rax
	movl	$0, %edx
	movl	$256, %esi
	movq	%rax, %rdi
	call	fseek@PLT
	jmp	.L232
.L242:
	movl	$0, -4(%rbp)
	movq	-80(%rbp), %rax
	movq	%rax, %rdi
	call	fgetc@PLT
	movzbl	%al, %eax
	movw	%ax, -50(%rbp)
	movq	-80(%rbp), %rax
	movq	%rax, %rdi
	call	fgetc@PLT
	movzbl	%al, %eax
	movw	%ax, -52(%rbp)
	movzwl	-50(%rbp), %eax
	cmpw	$-128, %ax
	jne	.L233
	movq	-80(%rbp), %rax
	movq	%rax, %rdi
	call	fgetc@PLT
	movb	%al, -25(%rbp)
	movq	-80(%rbp), %rdx
	leaq	-50(%rbp), %rax
	movq	%rdx, %rcx
	movl	$1, %edx
	movl	$2, %esi
	movq	%rax, %rdi
	call	fread@PLT
	cmpq	$1, %rax
	je	.L234
	leaq	.LC29(%rip), %rax
	movq	%rax, %rdi
	call	puts@PLT
	movl	$0, %eax
	jmp	.L243
.L234:
	movq	-80(%rbp), %rdx
	leaq	-52(%rbp), %rax
	movq	%rdx, %rcx
	movl	$1, %edx
	movl	$2, %esi
	movq	%rax, %rdi
	call	fread@PLT
	cmpq	$1, %rax
	je	.L236
	leaq	.LC29(%rip), %rax
	movq	%rax, %rdi
	call	puts@PLT
	movl	$0, %eax
	jmp	.L243
.L236:
	cmpb	$2, -25(%rbp)
	je	.L237
	cmpb	$-31, -25(%rbp)
	jne	.L238
.L237:
	movl	$4, -4(%rbp)
	jmp	.L233
.L238:
	cmpb	$3, -25(%rbp)
	jne	.L239
	movl	$2, -4(%rbp)
	jmp	.L233
.L239:
	cmpb	$126, -25(%rbp)
	jne	.L233
	movq	-72(%rbp), %rax
	movl	$1, %edx
	movl	$16, %esi
	pxor	%xmm1, %xmm1
	movl	.LC17(%rip), %ecx
	movd	%ecx, %xmm0
	movq	%rax, %rdi
	call	emb_pattern_addStitchRel@PLT
	jmp	.L241
.L233:
	movzwl	-52(%rbp), %eax
	cwtl
	pxor	%xmm0, %xmm0
	cvtsi2sdl	%eax, %xmm0
	movsd	.LC30(%rip), %xmm1
	divsd	%xmm1, %xmm0
	pxor	%xmm2, %xmm2
	cvtsd2ss	%xmm0, %xmm2
	movzwl	-50(%rbp), %eax
	cwtl
	pxor	%xmm0, %xmm0
	cvtsi2sdl	%eax, %xmm0
	movsd	.LC30(%rip), %xmm1
	divsd	%xmm1, %xmm0
	pxor	%xmm3, %xmm3
	cvtsd2ss	%xmm0, %xmm3
	movd	%xmm3, %ecx
	movl	-4(%rbp), %esi
	movq	-72(%rbp), %rax
	movl	$1, %edx
	movaps	%xmm2, %xmm1
	movd	%ecx, %xmm0
	movq	%rax, %rdi
	call	emb_pattern_addStitchRel@PLT
.L232:
	movq	-80(%rbp), %rax
	movq	%rax, %rdi
	call	feof@PLT
	testl	%eax, %eax
	je	.L242
.L241:
	movl	$1, %eax
.L243:
	leave
	.cfi_def_cfa 7, 8
	ret
	.cfi_endproc
.LFE23:
	.size	readBro, .-readBro
	.section	.rodata
.LC31:
	.string	"writeBro is not implemented"
	.text
	.globl	writeBro
	.type	writeBro, @function
writeBro:
.LFB24:
	.cfi_startproc
	pushq	%rbp
	.cfi_def_cfa_offset 16
	.cfi_offset 6, -16
	movq	%rsp, %rbp
	.cfi_def_cfa_register 6
	subq	$16, %rsp
	movq	%rdi, -8(%rbp)
	movq	%rsi, -16(%rbp)
	leaq	.LC31(%rip), %rax
	movq	%rax, %rdi
	call	puts@PLT
	movq	-16(%rbp), %rdx
	movq	-8(%rbp), %rax
	movq	%rax, %rsi
	leaq	.LC25(%rip), %rax
	movq	%rax, %rdi
	movl	$0, %eax
	call	printf@PLT
	movl	$0, %eax
	leave
	.cfi_def_cfa 7, 8
	ret
	.cfi_endproc
.LFE24:
	.size	writeBro, .-writeBro
	.section	.rodata
.LC32:
	.string	"readCnd is not implemented"
	.text
	.globl	readCnd
	.type	readCnd, @function
readCnd:
.LFB25:
	.cfi_startproc
	pushq	%rbp
	.cfi_def_cfa_offset 16
	.cfi_offset 6, -16
	movq	%rsp, %rbp
	.cfi_def_cfa_register 6
	subq	$16, %rsp
	movq	%rdi, -8(%rbp)
	movq	%rsi, -16(%rbp)
	leaq	.LC32(%rip), %rax
	movq	%rax, %rdi
	call	puts@PLT
	movq	-16(%rbp), %rdx
	movq	-8(%rbp), %rax
	movq	%rax, %rsi
	leaq	.LC23(%rip), %rax
	movq	%rax, %rdi
	movl	$0, %eax
	call	printf@PLT
	movl	$0, %eax
	leave
	.cfi_def_cfa 7, 8
	ret
	.cfi_endproc
.LFE25:
	.size	readCnd, .-readCnd
	.section	.rodata
.LC33:
	.string	"writeCnd is not implemented"
	.text
	.globl	writeCnd
	.type	writeCnd, @function
writeCnd:
.LFB26:
	.cfi_startproc
	pushq	%rbp
	.cfi_def_cfa_offset 16
	.cfi_offset 6, -16
	movq	%rsp, %rbp
	.cfi_def_cfa_register 6
	subq	$16, %rsp
	movq	%rdi, -8(%rbp)
	movq	%rsi, -16(%rbp)
	leaq	.LC33(%rip), %rax
	movq	%rax, %rdi
	call	puts@PLT
	movq	-16(%rbp), %rdx
	movq	-8(%rbp), %rax
	movq	%rax, %rsi
	leaq	.LC25(%rip), %rax
	movq	%rax, %rdi
	movl	$0, %eax
	call	printf@PLT
	movl	$0, %eax
	leave
	.cfi_def_cfa 7, 8
	ret
	.cfi_endproc
.LFE26:
	.size	writeCnd, .-writeCnd
	.section	.rodata
	.align 8
.LC34:
	.string	"ERROR: Number of colors is zero."
	.align 8
.LC35:
	.string	"ERROR: Empty line in col file."
.LC36:
	.string	"%d,%d,%d,%d"
	.text
	.globl	readCol
	.type	readCol, @function
readCol:
.LFB27:
	.cfi_startproc
	pushq	%rbp
	.cfi_def_cfa_offset 16
	.cfi_offset 6, -16
	movq	%rsp, %rbp
	.cfi_def_cfa_register 6
	subq	$480, %rsp
	movq	%rdi, -472(%rbp)
	movq	%rsi, -480(%rbp)
	movq	-472(%rbp), %rax
	movq	24(%rax), %rax
	movl	$0, 24(%rax)
	leaq	-464(%rbp), %rcx
	movq	-480(%rbp), %rax
	movl	$30, %edx
	movq	%rcx, %rsi
	movq	%rax, %rdi
	call	emb_readline@PLT
	leaq	-464(%rbp), %rax
	movq	%rax, %rdi
	call	atoi@PLT
	movl	%eax, -8(%rbp)
	cmpl	$0, -8(%rbp)
	jg	.L251
	leaq	.LC34(%rip), %rax
	movq	%rax, %rdi
	movl	$0, %eax
	call	printf@PLT
	movl	$0, %eax
	jmp	.L258
.L251:
	movl	$0, -4(%rbp)
	jmp	.L253
.L257:
	leaq	-464(%rbp), %rcx
	movq	-480(%rbp), %rax
	movl	$30, %edx
	movq	%rcx, %rsi
	movq	%rax, %rdi
	call	emb_readline@PLT
	movzbl	-464(%rbp), %eax
	testb	%al, %al
	jne	.L254
	leaq	.LC35(%rip), %rax
	movq	%rax, %rdi
	movl	$0, %eax
	call	printf@PLT
	movl	$0, %eax
	jmp	.L258
.L254:
	leaq	-24(%rbp), %rdi
	leaq	-20(%rbp), %rsi
	leaq	-16(%rbp), %rcx
	leaq	-12(%rbp), %rdx
	leaq	-464(%rbp), %rax
	movq	%rdi, %r9
	movq	%rsi, %r8
	leaq	.LC36(%rip), %rsi
	movq	%rax, %rdi
	movl	$0, %eax
	call	__isoc99_sscanf@PLT
	cmpl	$4, %eax
	jne	.L259
	movl	-24(%rbp), %eax
	movb	%al, -432(%rbp)
	movl	-20(%rbp), %eax
	movb	%al, -431(%rbp)
	movl	-16(%rbp), %eax
	movb	%al, -430(%rbp)
	movb	$0, -229(%rbp)
	movb	$0, -429(%rbp)
	movq	-472(%rbp), %r8
	subq	$8, %rsp
	subq	$408, %rsp
	movq	%rsp, %rax
	movq	%rax, %rdx
	leaq	-432(%rbp), %rax
	movl	$50, %ecx
	movq	%rdx, %rdi
	movq	%rax, %rsi
	rep movsq
	movq	%rsi, %rax
	movq	%rdi, %rdx
	movzwl	(%rax), %ecx
	movw	%cx, (%rdx)
	leaq	2(%rdx), %rdx
	leaq	2(%rax), %rax
	movzbl	(%rax), %ecx
	movb	%cl, (%rdx)
	movq	%r8, %rdi
	call	emb_pattern_addThread@PLT
	addq	$416, %rsp
	addl	$1, -4(%rbp)
.L253:
	movl	-4(%rbp), %eax
	cmpl	-8(%rbp), %eax
	jl	.L257
	jmp	.L256
.L259:
	nop
.L256:
	movl	$1, %eax
.L258:
	leave
	.cfi_def_cfa 7, 8
	ret
	.cfi_endproc
.LFE27:
	.size	readCol, .-readCol
	.section	.rodata
.LC37:
	.string	"%d\r\n"
.LC38:
	.string	"%d,%d,%d,%d\r\n"
	.text
	.globl	writeCol
	.type	writeCol, @function
writeCol:
.LFB28:
	.cfi_startproc
	pushq	%rbp
	.cfi_def_cfa_offset 16
	.cfi_offset 6, -16
	movq	%rsp, %rbp
	.cfi_def_cfa_register 6
	subq	$32, %rsp
	movq	%rdi, -24(%rbp)
	movq	%rsi, -32(%rbp)
	movq	-24(%rbp), %rax
	movq	24(%rax), %rax
	movl	24(%rax), %edx
	movq	-32(%rbp), %rax
	leaq	.LC37(%rip), %rcx
	movq	%rcx, %rsi
	movq	%rax, %rdi
	movl	$0, %eax
	call	fprintf@PLT
	movl	$0, -4(%rbp)
	jmp	.L261
.L262:
	movq	-24(%rbp), %rax
	movq	24(%rax), %rax
	movq	16(%rax), %rdx
	movl	-4(%rbp), %eax
	cltq
	imulq	$403, %rax, %rax
	addq	%rdx, %rax
	movzwl	(%rax), %edx
	movw	%dx, -7(%rbp)
	movzbl	2(%rax), %eax
	movb	%al, -5(%rbp)
	movzbl	-5(%rbp), %eax
	movzbl	%al, %edi
	movzbl	-6(%rbp), %eax
	movzbl	%al, %esi
	movzbl	-7(%rbp), %eax
	movzbl	%al, %ecx
	movl	-4(%rbp), %edx
	movq	-32(%rbp), %rax
	movl	%edi, %r9d
	movl	%esi, %r8d
	leaq	.LC38(%rip), %rsi
	movq	%rax, %rdi
	movl	$0, %eax
	call	fprintf@PLT
	addl	$1, -4(%rbp)
.L261:
	movq	-24(%rbp), %rax
	movq	24(%rax), %rax
	movl	24(%rax), %eax
	cmpl	%eax, -4(%rbp)
	jl	.L262
	movl	$1, %eax
	leave
	.cfi_def_cfa 7, 8
	ret
	.cfi_endproc
.LFE28:
	.size	writeCol, .-writeCol
	.globl	_subMask
	.bss
	.align 32
	.type	_subMask, @object
	.size	_subMask, 479
_subMask:
	.zero	479
	.globl	_xorMask
	.align 32
	.type	_xorMask, @object
	.size	_xorMask, 501
_xorMask:
	.zero	501
	.globl	csd_decryptArray
	.section	.rodata
	.align 32
	.type	csd_decryptArray, @object
	.size	csd_decryptArray, 256
csd_decryptArray:
	.string	"Cnrzvlao|)]b`nab Afj:5Zc|7:*%$*3"
	.ascii	"\020\024\003rLHB\bz^\013oEG_@T\\WUYS:2oSTP\\JV//b,\"e%(808\""
	.ascii	"+%:o'8>?t73w.0=4.2+,\f\030B\023\026\n\025\002\013\034\036\016"
	.ascii	"\b`d\r\tQ%\032\030\026\031\032X\020\024[\b\025\033_\325\322\256"
	.ascii	"\243\301\360\364\350\370\354\246\253\315\370\375\373\342\360"
	.ascii	"\376\372\365\265\367\371\374\271\365\357\364\370\354\277\303"
	.ascii	"\316\327\315\320\327\317\302\333\244\240\260\257\276\230\342"
	.ascii	"\302\221\345\334\332\322\226\304\230\370\311\322\335\323\236"
	.ascii	"\336\256\245\342\214\266\254\243\251\274\250\246\353\213\277"
	.ascii	"\241\254\265\243\273\266\247\330\334\232\252\371\202\373\235"
	.ascii	"\271\253\263\224\301\240\214\213\216\225\217\207\231\347\341"
	.ascii	"\243\203\213\317\243\205\235\203\324\267\203\204\221\227\237"
	.ascii	"\210\217\335\255\220"
	.text
	.globl	BuildDecryptionTable
	.type	BuildDecryptionTable, @function
BuildDecryptionTable:
.LFB29:
	.cfi_startproc
	pushq	%rbp
	.cfi_def_cfa_offset 16
	.cfi_offset 6, -16
	movq	%rsp, %rbp
	.cfi_def_cfa_register 6
	movl	%edi, -20(%rbp)
	movl	$1103515245, -8(%rbp)
	movl	$12345, -12(%rbp)
	movl	$0, -4(%rbp)
	jmp	.L265
.L266:
	movl	-20(%rbp), %eax
	imull	-8(%rbp), %eax
	movl	%eax, -20(%rbp)
	movl	-12(%rbp), %eax
	addl	%eax, -20(%rbp)
	movl	-20(%rbp), %eax
	sarl	$16, %eax
	movl	%eax, %ecx
	movl	-4(%rbp), %eax
	cltq
	leaq	_subMask(%rip), %rdx
	movb	%cl, (%rax,%rdx)
	addl	$1, -4(%rbp)
.L265:
	cmpl	$478, -4(%rbp)
	jle	.L266
	movl	$0, -4(%rbp)
	jmp	.L267
.L268:
	movl	-20(%rbp), %eax
	imull	-8(%rbp), %eax
	movl	%eax, -20(%rbp)
	movl	-12(%rbp), %eax
	addl	%eax, -20(%rbp)
	movl	-20(%rbp), %eax
	sarl	$16, %eax
	movl	%eax, %ecx
	movl	-4(%rbp), %eax
	cltq
	leaq	_xorMask(%rip), %rdx
	movb	%cl, (%rax,%rdx)
	addl	$1, -4(%rbp)
.L267:
	cmpl	$500, -4(%rbp)
	jle	.L268
	nop
	nop
	popq	%rbp
	.cfi_def_cfa 7, 8
	ret
	.cfi_endproc
.LFE29:
	.size	BuildDecryptionTable, .-BuildDecryptionTable
	.globl	DecodeCsdByte
	.type	DecodeCsdByte, @function
DecodeCsdByte:
.LFB30:
	.cfi_startproc
	pushq	%rbp
	.cfi_def_cfa_offset 16
	.cfi_offset 6, -16
	movq	%rsp, %rbp
	.cfi_def_cfa_register 6
	movq	%rdi, -24(%rbp)
	movl	%esi, %eax
	movl	%edx, -32(%rbp)
	movb	%al, -28(%rbp)
	subq	$1, -24(%rbp)
	cmpl	$0, -32(%rbp)
	je	.L270
	movq	-24(%rbp), %rax
	movb	$0, %al
	movl	%eax, -8(%rbp)
	movq	-24(%rbp), %rax
	andl	$255, %eax
	movl	%eax, -12(%rbp)
	movl	-12(%rbp), %eax
	movl	%eax, -4(%rbp)
	movl	-8(%rbp), %eax
	movl	%eax, -12(%rbp)
	movl	-12(%rbp), %edx
	movslq	%edx, %rax
	imulq	$715827883, %rax, %rax
	shrq	$32, %rax
	movl	%eax, %ecx
	sarl	$7, %ecx
	movl	%edx, %eax
	sarl	$31, %eax
	subl	%eax, %ecx
	movl	%ecx, %eax
	addl	%eax, %eax
	addl	%ecx, %eax
	sall	$8, %eax
	subl	%eax, %edx
	movl	%edx, -16(%rbp)
	cmpl	$256, -16(%rbp)
	je	.L271
	cmpl	$512, -16(%rbp)
	je	.L271
	movl	-4(%rbp), %eax
	cltq
	leaq	csd_decryptArray(%rip), %rdx
	movzbl	(%rax,%rdx), %eax
	movzbl	%al, %eax
	orl	-8(%rbp), %eax
	movl	%eax, -4(%rbp)
	jmp	.L276
.L271:
	cmpl	$256, -16(%rbp)
	je	.L273
	cmpl	$512, -16(%rbp)
	jne	.L273
	cmpl	$0, -4(%rbp)
	jne	.L274
	subl	$256, -8(%rbp)
.L274:
	movl	-4(%rbp), %eax
	cltq
	leaq	csd_decryptArray(%rip), %rdx
	movzbl	(%rax,%rdx), %eax
	movzbl	%al, %eax
	orl	-8(%rbp), %eax
	movl	%eax, -4(%rbp)
	jmp	.L276
.L273:
	cmpl	$1, -4(%rbp)
	je	.L275
	cmpl	$0, -4(%rbp)
	je	.L275
	movl	-4(%rbp), %eax
	cltq
	leaq	csd_decryptArray(%rip), %rdx
	movzbl	(%rax,%rdx), %eax
	movzbl	%al, %eax
	orl	-8(%rbp), %eax
	movl	%eax, -4(%rbp)
	jmp	.L276
.L275:
	subl	$256, -8(%rbp)
	movl	-4(%rbp), %eax
	cltq
	leaq	csd_decryptArray(%rip), %rdx
	movzbl	(%rax,%rdx), %eax
	movzbl	%al, %eax
	orl	-8(%rbp), %eax
	movl	%eax, -4(%rbp)
	jmp	.L276
.L270:
	movq	-24(%rbp), %rax
	movl	%eax, -4(%rbp)
.L276:
	movl	-4(%rbp), %eax
	movslq	%eax, %rdx
	imulq	$548658497, %rdx, %rdx
	shrq	$32, %rdx
	sarl	$6, %edx
	movl	%eax, %ecx
	sarl	$31, %ecx
	subl	%ecx, %edx
	imull	$501, %edx, %ecx
	subl	%ecx, %eax
	movl	%eax, %edx
	movslq	%edx, %rax
	leaq	_xorMask(%rip), %rdx
	movzbl	(%rax,%rdx), %edx
	movzbl	-28(%rbp), %eax
	xorl	%edx, %eax
	movl	%eax, %esi
	movl	-4(%rbp), %eax
	movslq	%eax, %rdx
	imulq	$1147715687, %rdx, %rdx
	shrq	$32, %rdx
	sarl	$7, %edx
	movl	%eax, %ecx
	sarl	$31, %ecx
	subl	%ecx, %edx
	imull	$479, %edx, %ecx
	subl	%ecx, %eax
	movl	%eax, %edx
	movslq	%edx, %rax
	leaq	_subMask(%rip), %rdx
	movzbl	(%rax,%rdx), %eax
	movl	%eax, %edx
	movl	%esi, %eax
	subl	%edx, %eax
	popq	%rbp
	.cfi_def_cfa 7, 8
	ret
	.cfi_endproc
.LFE30:
	.size	DecodeCsdByte, .-DecodeCsdByte
	.section	.rodata
	.align 8
.LC39:
	.string	"unknown bytes to decode: %c %c"
.LC40:
	.string	"Invalid color change detected"
	.text
	.globl	readCsd
	.type	readCsd, @function
readCsd:
.LFB31:
	.cfi_startproc
	pushq	%rbp
	.cfi_def_cfa_offset 16
	.cfi_offset 6, -16
	movq	%rsp, %rbp
	.cfi_def_cfa_register 6
	pushq	%rbx
	subq	$488, %rsp
	.cfi_offset 3, -24
	movq	%rdi, -488(%rbp)
	movq	%rsi, -496(%rbp)
	movl	$0, -24(%rbp)
	movb	$0, -25(%rbp)
	movb	$0, -26(%rbp)
	movl	$-1, -32(%rbp)
	movq	-496(%rbp), %rdx
	leaq	-51(%rbp), %rax
	movq	%rdx, %rcx
	movl	$8, %edx
	movl	$1, %esi
	movq	%rax, %rdi
	call	fread@PLT
	cmpq	$8, %rax
	je	.L279
	leaq	.LC29(%rip), %rax
	movq	%rax, %rdi
	call	puts@PLT
	movl	$0, %eax
	jmp	.L301
.L279:
	movzbl	-51(%rbp), %eax
	cmpb	$124, %al
	je	.L281
	movzbl	-49(%rbp), %eax
	cmpb	$-61, %al
	je	.L281
	movl	$1, -24(%rbp)
.L281:
	cmpl	$0, -24(%rbp)
	jne	.L282
	movl	$12, %edi
	call	BuildDecryptionTable
	jmp	.L283
.L282:
	movzbl	-51(%rbp), %eax
	movzbl	%al, %eax
	movl	%eax, %edi
	call	BuildDecryptionTable
.L283:
	movl	$0, -20(%rbp)
	jmp	.L284
.L285:
	movq	-496(%rbp), %rax
	movq	%rax, %rdi
	call	fgetc@PLT
	movzbl	%al, %ebx
	movq	-496(%rbp), %rax
	movq	%rax, %rdi
	call	ftell@PLT
	movq	%rax, %rcx
	movl	-24(%rbp), %eax
	movl	%eax, %edx
	movl	%ebx, %esi
	movq	%rcx, %rdi
	call	DecodeCsdByte
	movb	%al, -480(%rbp)
	movq	-496(%rbp), %rax
	movq	%rax, %rdi
	call	fgetc@PLT
	movzbl	%al, %ebx
	movq	-496(%rbp), %rax
	movq	%rax, %rdi
	call	ftell@PLT
	movq	%rax, %rcx
	movl	-24(%rbp), %eax
	movl	%eax, %edx
	movl	%ebx, %esi
	movq	%rcx, %rdi
	call	DecodeCsdByte
	movb	%al, -479(%rbp)
	movq	-496(%rbp), %rax
	movq	%rax, %rdi
	call	fgetc@PLT
	movzbl	%al, %ebx
	movq	-496(%rbp), %rax
	movq	%rax, %rdi
	call	ftell@PLT
	movq	%rax, %rcx
	movl	-24(%rbp), %eax
	movl	%eax, %edx
	movl	%ebx, %esi
	movq	%rcx, %rdi
	call	DecodeCsdByte
	movb	%al, -478(%rbp)
	movb	$0, -277(%rbp)
	movb	$0, -477(%rbp)
	movq	-488(%rbp), %r8
	subq	$8, %rsp
	subq	$408, %rsp
	movq	%rsp, %rax
	movq	%rax, %rdx
	leaq	-480(%rbp), %rax
	movl	$50, %ecx
	movq	%rdx, %rdi
	movq	%rax, %rsi
	rep movsq
	movq	%rsi, %rax
	movq	%rdi, %rdx
	movzwl	(%rax), %ecx
	movw	%cx, (%rdx)
	leaq	2(%rdx), %rdx
	leaq	2(%rax), %rax
	movzbl	(%rax), %ecx
	movb	%cl, (%rdx)
	movq	%r8, %rdi
	call	emb_pattern_addThread@PLT
	addq	$416, %rsp
	addl	$1, -20(%rbp)
.L284:
	cmpl	$15, -20(%rbp)
	jle	.L285
	movq	-496(%rbp), %rax
	movq	%rax, %rdi
	call	fgetc@PLT
	movzbl	%al, %ebx
	movq	-496(%rbp), %rax
	movq	%rax, %rdi
	call	ftell@PLT
	movq	%rax, %rcx
	movl	-24(%rbp), %eax
	movl	%eax, %edx
	movl	%ebx, %esi
	movq	%rcx, %rdi
	call	DecodeCsdByte
	movb	%al, -37(%rbp)
	movq	-496(%rbp), %rax
	movq	%rax, %rdi
	call	fgetc@PLT
	movzbl	%al, %ebx
	movq	-496(%rbp), %rax
	movq	%rax, %rdi
	call	ftell@PLT
	movq	%rax, %rcx
	movl	-24(%rbp), %eax
	movl	%eax, %edx
	movl	%ebx, %esi
	movq	%rcx, %rdi
	call	DecodeCsdByte
	movb	%al, -38(%rbp)
	movl	emb_verbose(%rip), %eax
	cmpl	$1, %eax
	jle	.L286
	movzbl	-38(%rbp), %edx
	movzbl	-37(%rbp), %eax
	movl	%eax, %esi
	leaq	.LC39(%rip), %rax
	movq	%rax, %rdi
	movl	$0, %eax
	call	printf@PLT
.L286:
	movl	$0, -20(%rbp)
	jmp	.L287
.L288:
	movq	-496(%rbp), %rax
	movq	%rax, %rdi
	call	fgetc@PLT
	movzbl	%al, %ebx
	movq	-496(%rbp), %rax
	movq	%rax, %rdi
	call	ftell@PLT
	movq	%rax, %rcx
	movl	-24(%rbp), %eax
	movl	%eax, %edx
	movl	%ebx, %esi
	movq	%rcx, %rdi
	call	DecodeCsdByte
	movl	-20(%rbp), %edx
	movslq	%edx, %rdx
	movb	%al, -65(%rbp,%rdx)
	addl	$1, -20(%rbp)
.L287:
	cmpl	$13, -20(%rbp)
	jle	.L288
	movl	$0, -20(%rbp)
	jmp	.L289
.L300:
	movq	-496(%rbp), %rax
	movq	%rax, %rdi
	call	fgetc@PLT
	movzbl	%al, %ebx
	movq	-496(%rbp), %rax
	movq	%rax, %rdi
	call	ftell@PLT
	movq	%rax, %rcx
	movl	-24(%rbp), %eax
	movl	%eax, %edx
	movl	%ebx, %esi
	movq	%rcx, %rdi
	call	DecodeCsdByte
	movb	%al, -39(%rbp)
	movq	-496(%rbp), %rax
	movq	%rax, %rdi
	call	fgetc@PLT
	movzbl	%al, %ebx
	movq	-496(%rbp), %rax
	movq	%rax, %rdi
	call	ftell@PLT
	movq	%rax, %rcx
	movl	-24(%rbp), %eax
	movl	%eax, %edx
	movl	%ebx, %esi
	movq	%rcx, %rdi
	call	DecodeCsdByte
	movb	%al, -40(%rbp)
	movq	-496(%rbp), %rax
	movq	%rax, %rdi
	call	fgetc@PLT
	movzbl	%al, %ebx
	movq	-496(%rbp), %rax
	movq	%rax, %rdi
	call	ftell@PLT
	movq	%rax, %rcx
	movl	-24(%rbp), %eax
	movl	%eax, %edx
	movl	%ebx, %esi
	movq	%rcx, %rdi
	call	DecodeCsdByte
	movb	%al, -41(%rbp)
	cmpb	$-8, -39(%rbp)
	je	.L290
	cmpb	$-121, -39(%rbp)
	je	.L290
	cmpb	$-111, -39(%rbp)
	je	.L290
	movzbl	-39(%rbp), %eax
	andl	$32, %eax
	testl	%eax, %eax
	setg	%al
	movb	%al, -42(%rbp)
	movzbl	-39(%rbp), %eax
	andl	$64, %eax
	testl	%eax, %eax
	setg	%al
	movb	%al, -43(%rbp)
	andb	$31, -39(%rbp)
	movzbl	-39(%rbp), %eax
	andl	$31, %eax
	testl	%eax, %eax
	jne	.L291
	movl	$0, -36(%rbp)
	jmp	.L292
.L291:
	movzbl	-39(%rbp), %eax
	andl	$12, %eax
	testl	%eax, %eax
	jle	.L293
	movl	$4, -36(%rbp)
	cmpl	$13, -32(%rbp)
	jle	.L294
	leaq	.LC40(%rip), %rax
	movq	%rax, %rdi
	call	puts@PLT
.L294:
	movl	-32(%rbp), %eax
	movslq	%eax, %rdx
	imulq	$-1840700269, %rdx, %rdx
	shrq	$32, %rdx
	addl	%eax, %edx
	sarl	$3, %edx
	movl	%eax, %ecx
	sarl	$31, %ecx
	subl	%ecx, %edx
	imull	$14, %edx, %ecx
	subl	%ecx, %eax
	movl	%eax, %edx
	movslq	%edx, %rax
	movzbl	-65(%rbp,%rax), %eax
	movzbl	%al, %edx
	movq	-488(%rbp), %rax
	movl	%edx, %esi
	movq	%rax, %rdi
	call	emb_pattern_changeColor@PLT
	addl	$1, -32(%rbp)
	jmp	.L292
.L293:
	movzbl	-39(%rbp), %eax
	andl	$31, %eax
	testl	%eax, %eax
	jle	.L295
	movl	$2, -36(%rbp)
	jmp	.L292
.L295:
	movl	$0, -36(%rbp)
.L292:
	movzbl	-41(%rbp), %eax
	movb	%al, -25(%rbp)
	movzbl	-40(%rbp), %eax
	movb	%al, -26(%rbp)
	cmpb	$0, -42(%rbp)
	je	.L296
	movzbl	-25(%rbp), %eax
	negl	%eax
	movb	%al, -25(%rbp)
.L296:
	cmpb	$0, -43(%rbp)
	je	.L297
	movzbl	-26(%rbp), %eax
	negl	%eax
	movb	%al, -26(%rbp)
.L297:
	cmpl	$4, -36(%rbp)
	jne	.L298
	movl	-36(%rbp), %ecx
	movq	-488(%rbp), %rax
	movl	$1, %edx
	movl	%ecx, %esi
	pxor	%xmm1, %xmm1
	movl	.LC17(%rip), %ecx
	movd	%ecx, %xmm0
	movq	%rax, %rdi
	call	emb_pattern_addStitchRel@PLT
	jmp	.L299
.L298:
	movsbl	-26(%rbp), %eax
	pxor	%xmm0, %xmm0
	cvtsi2sdl	%eax, %xmm0
	movsd	.LC30(%rip), %xmm1
	divsd	%xmm1, %xmm0
	pxor	%xmm2, %xmm2
	cvtsd2ss	%xmm0, %xmm2
	movsbl	-25(%rbp), %eax
	pxor	%xmm0, %xmm0
	cvtsi2sdl	%eax, %xmm0
	movsd	.LC30(%rip), %xmm1
	divsd	%xmm1, %xmm0
	pxor	%xmm3, %xmm3
	cvtsd2ss	%xmm0, %xmm3
	movd	%xmm3, %ecx
	movl	-36(%rbp), %esi
	movq	-488(%rbp), %rax
	movl	$1, %edx
	movaps	%xmm2, %xmm1
	movd	%ecx, %xmm0
	movq	%rax, %rdi
	call	emb_pattern_addStitchRel@PLT
.L299:
	addl	$1, -20(%rbp)
.L289:
	movq	-496(%rbp), %rax
	movq	%rax, %rdi
	call	feof@PLT
	testl	%eax, %eax
	je	.L300
.L290:
	movl	$1, %eax
.L301:
	movq	-8(%rbp), %rbx
	leave
	.cfi_def_cfa 7, 8
	ret
	.cfi_endproc
.LFE31:
	.size	readCsd, .-readCsd
	.section	.rodata
.LC41:
	.string	"writeCsd is not implemented."
	.align 8
.LC42:
	.string	"Overridden, defaulting to dst."
	.text
	.globl	writeCsd
	.type	writeCsd, @function
writeCsd:
.LFB32:
	.cfi_startproc
	pushq	%rbp
	.cfi_def_cfa_offset 16
	.cfi_offset 6, -16
	movq	%rsp, %rbp
	.cfi_def_cfa_register 6
	subq	$16, %rsp
	movq	%rdi, -8(%rbp)
	movq	%rsi, -16(%rbp)
	leaq	.LC41(%rip), %rax
	movq	%rax, %rdi
	call	puts@PLT
	leaq	.LC42(%rip), %rax
	movq	%rax, %rdi
	call	puts@PLT
	movq	-16(%rbp), %rdx
	movq	-8(%rbp), %rax
	movq	%rdx, %rsi
	movq	%rax, %rdi
	call	writeDst
	movl	$0, %eax
	leave
	.cfi_def_cfa 7, 8
	ret
	.cfi_endproc
.LFE32:
	.size	writeCsd, .-writeCsd
	.section	.rodata
.LC43:
	.string	"STITCH"
.LC44:
	.string	"JUMP"
.LC45:
	.string	"TRIM"
.LC46:
	.string	"COLOR"
.LC47:
	.string	"END"
.LC48:
	.string	"UNKNOWN"
	.text
	.globl	csvStitchFlagToStr
	.type	csvStitchFlagToStr, @function
csvStitchFlagToStr:
.LFB33:
	.cfi_startproc
	pushq	%rbp
	.cfi_def_cfa_offset 16
	.cfi_offset 6, -16
	movq	%rsp, %rbp
	.cfi_def_cfa_register 6
	movl	%edi, -4(%rbp)
	cmpl	$16, -4(%rbp)
	ja	.L305
	movl	-4(%rbp), %eax
	leaq	0(,%rax,4), %rdx
	leaq	.L307(%rip), %rax
	movl	(%rdx,%rax), %eax
	cltq
	leaq	.L307(%rip), %rdx
	addq	%rdx, %rax
	jmp	*%rax
	.section	.rodata
	.align 4
	.align 4
.L307:
	.long	.L311-.L307
	.long	.L310-.L307
	.long	.L309-.L307
	.long	.L305-.L307
	.long	.L308-.L307
	.long	.L305-.L307
	.long	.L305-.L307
	.long	.L305-.L307
	.long	.L305-.L307
	.long	.L305-.L307
	.long	.L305-.L307
	.long	.L305-.L307
	.long	.L305-.L307
	.long	.L305-.L307
	.long	.L305-.L307
	.long	.L305-.L307
	.long	.L306-.L307
	.text
.L311:
	leaq	.LC43(%rip), %rax
	jmp	.L312
.L310:
	leaq	.LC44(%rip), %rax
	jmp	.L312
.L309:
	leaq	.LC45(%rip), %rax
	jmp	.L312
.L308:
	leaq	.LC46(%rip), %rax
	jmp	.L312
.L306:
	leaq	.LC47(%rip), %rax
	jmp	.L312
.L305:
	leaq	.LC48(%rip), %rax
.L312:
	popq	%rbp
	.cfi_def_cfa 7, 8
	ret
	.cfi_endproc
.LFE33:
	.size	csvStitchFlagToStr, .-csvStitchFlagToStr
	.section	.rodata
	.align 8
.LC49:
	.string	"ERROR: format-csv.c csvStrToStitchFlag(), str argument is null"
	.text
	.globl	csvStrToStitchFlag
	.type	csvStrToStitchFlag, @function
csvStrToStitchFlag:
.LFB34:
	.cfi_startproc
	pushq	%rbp
	.cfi_def_cfa_offset 16
	.cfi_offset 6, -16
	movq	%rsp, %rbp
	.cfi_def_cfa_register 6
	subq	$16, %rsp
	movq	%rdi, -8(%rbp)
	cmpq	$0, -8(%rbp)
	jne	.L314
	leaq	.LC49(%rip), %rax
	movq	%rax, %rdi
	call	puts@PLT
	movl	$-1, %eax
	jmp	.L315
.L314:
	movq	-8(%rbp), %rax
	leaq	.LC43(%rip), %rdx
	movq	%rdx, %rsi
	movq	%rax, %rdi
	call	strcmp@PLT
	testl	%eax, %eax
	jne	.L316
	movl	$0, %eax
	jmp	.L315
.L316:
	movq	-8(%rbp), %rax
	leaq	.LC44(%rip), %rdx
	movq	%rdx, %rsi
	movq	%rax, %rdi
	call	strcmp@PLT
	testl	%eax, %eax
	jne	.L317
	movl	$1, %eax
	jmp	.L315
.L317:
	movq	-8(%rbp), %rax
	leaq	.LC45(%rip), %rdx
	movq	%rdx, %rsi
	movq	%rax, %rdi
	call	strcmp@PLT
	testl	%eax, %eax
	jne	.L318
	movl	$2, %eax
	jmp	.L315
.L318:
	movq	-8(%rbp), %rax
	leaq	.LC46(%rip), %rdx
	movq	%rdx, %rsi
	movq	%rax, %rdi
	call	strcmp@PLT
	testl	%eax, %eax
	jne	.L319
	movl	$4, %eax
	jmp	.L315
.L319:
	movq	-8(%rbp), %rax
	leaq	.LC47(%rip), %rdx
	movq	%rdx, %rsi
	movq	%rax, %rdi
	call	strcmp@PLT
	testl	%eax, %eax
	jne	.L320
	movl	$16, %eax
	jmp	.L315
.L320:
	movq	-8(%rbp), %rax
	leaq	.LC48(%rip), %rdx
	movq	%rdx, %rsi
	movq	%rax, %rdi
	call	strcmp@PLT
	testl	%eax, %eax
	jne	.L321
	movl	$4, %eax
	jmp	.L315
.L321:
	movl	$-1, %eax
.L315:
	leave
	.cfi_def_cfa 7, 8
	ret
	.cfi_endproc
.LFE34:
	.size	csvStrToStitchFlag, .-csvStrToStitchFlag
	.section	.rodata
	.align 8
.LC50:
	.string	"ERROR: format-csv.c readCsv(), premature newline"
.LC51:
	.string	"#"
.LC52:
	.string	">"
.LC53:
	.string	"$"
.LC54:
	.string	"*"
	.text
	.globl	readCsv
	.type	readCsv, @function
readCsv:
.LFB35:
	.cfi_startproc
	pushq	%rbp
	.cfi_def_cfa_offset 16
	.cfi_offset 6, -16
	movq	%rsp, %rbp
	.cfi_def_cfa_register 6
	subq	$688, %rsp
	movq	%rdi, -680(%rbp)
	movq	%rsi, -688(%rbp)
	movl	$0, -4(%rbp)
	movl	$0, -8(%rbp)
	movl	$0, -40(%rbp)
	movl	$0, -12(%rbp)
	movl	$0, -16(%rbp)
	movl	$0, -20(%rbp)
	movl	$1, -24(%rbp)
	movl	$0, -28(%rbp)
	pxor	%xmm0, %xmm0
	movss	%xmm0, -32(%rbp)
	pxor	%xmm0, %xmm0
	movss	%xmm0, -44(%rbp)
	movb	$0, -33(%rbp)
	movb	$0, -34(%rbp)
	movb	$0, -35(%rbp)
	movl	$0, -8(%rbp)
	jmp	.L323
.L349:
	movq	-688(%rbp), %rax
	movq	%rax, %rdi
	call	fgetc@PLT
	movl	%eax, -40(%rbp)
	cmpl	$44, -40(%rbp)
	je	.L324
	cmpl	$44, -40(%rbp)
	jg	.L351
	cmpl	$10, -40(%rbp)
	je	.L326
	cmpl	$34, -40(%rbp)
	jne	.L351
	cmpl	$1, -24(%rbp)
	jne	.L327
	movl	$2, -24(%rbp)
	jmp	.L352
.L327:
	cmpl	$2, -24(%rbp)
	jne	.L352
	movl	$3, -24(%rbp)
	jmp	.L352
.L324:
	cmpl	$3, -24(%rbp)
	jne	.L353
	movl	$1, -16(%rbp)
	jmp	.L353
.L326:
	cmpl	$3, -24(%rbp)
	jne	.L331
	movl	$1, -16(%rbp)
	jmp	.L354
.L331:
	cmpl	$1, -24(%rbp)
	je	.L354
	leaq	.LC50(%rip), %rax
	movq	%rax, %rdi
	call	puts@PLT
	movl	$0, %eax
	jmp	.L350
.L351:
	nop
	jmp	.L329
.L352:
	nop
	jmp	.L329
.L353:
	nop
	jmp	.L329
.L354:
	nop
.L329:
	cmpl	$0, -16(%rbp)
	je	.L334
	movl	-8(%rbp), %eax
	cltq
	movb	$0, -256(%rbp,%rax)
	movl	$0, -8(%rbp)
	movl	$0, -16(%rbp)
	addl	$1, -12(%rbp)
	movl	$1, -24(%rbp)
	cmpl	$0, -20(%rbp)
	jne	.L335
	leaq	-256(%rbp), %rax
	leaq	.LC51(%rip), %rdx
	movq	%rdx, %rsi
	movq	%rax, %rdi
	call	strcmp@PLT
	testl	%eax, %eax
	jne	.L336
	movl	$1, -20(%rbp)
	jmp	.L337
.L336:
	leaq	-256(%rbp), %rax
	leaq	.LC52(%rip), %rdx
	movq	%rdx, %rsi
	movq	%rax, %rdi
	call	strcmp@PLT
	testl	%eax, %eax
	jne	.L338
	movl	$2, -20(%rbp)
	jmp	.L337
.L338:
	leaq	-256(%rbp), %rax
	leaq	.LC53(%rip), %rdx
	movq	%rdx, %rsi
	movq	%rax, %rdi
	call	strcmp@PLT
	testl	%eax, %eax
	jne	.L339
	movl	$3, -20(%rbp)
	jmp	.L337
.L339:
	leaq	-256(%rbp), %rax
	leaq	.LC54(%rip), %rdx
	movq	%rdx, %rsi
	movq	%rax, %rdi
	call	strcmp@PLT
	testl	%eax, %eax
	jne	.L340
	movl	$4, -20(%rbp)
	jmp	.L337
.L340:
	movl	$0, %eax
	jmp	.L350
.L335:
	cmpl	$1, -20(%rbp)
	je	.L337
	cmpl	$2, -20(%rbp)
	je	.L337
	cmpl	$3, -20(%rbp)
	jne	.L341
	cmpl	$2, -12(%rbp)
	je	.L337
	cmpl	$3, -12(%rbp)
	jne	.L342
	leaq	-256(%rbp), %rax
	movq	%rax, %rdi
	call	atoi@PLT
	movb	%al, -33(%rbp)
	jmp	.L337
.L342:
	cmpl	$4, -12(%rbp)
	jne	.L343
	leaq	-256(%rbp), %rax
	movq	%rax, %rdi
	call	atoi@PLT
	movb	%al, -34(%rbp)
	jmp	.L337
.L343:
	cmpl	$5, -12(%rbp)
	jne	.L344
	leaq	-256(%rbp), %rax
	movq	%rax, %rdi
	call	atoi@PLT
	movb	%al, -35(%rbp)
	jmp	.L337
.L344:
	cmpl	$6, -12(%rbp)
	je	.L337
	cmpl	$7, -12(%rbp)
	jne	.L345
	movzbl	-33(%rbp), %eax
	movb	%al, -672(%rbp)
	movzbl	-34(%rbp), %eax
	movb	%al, -671(%rbp)
	movzbl	-35(%rbp), %eax
	movb	%al, -670(%rbp)
	leaq	-672(%rbp), %rax
	addq	$3, %rax
	movabsq	$6000277095769722708, %rsi
	movabsq	$5642809484591583811, %rdi
	movq	%rsi, (%rax)
	movq	%rdi, 8(%rax)
	movb	$0, 16(%rax)
	leaq	-672(%rbp), %rax
	addq	$203, %rax
	movabsq	$6071207690389180244, %rsi
	movabsq	$5572446285066095681, %rdi
	movq	%rsi, (%rax)
	movq	%rdi, 8(%rax)
	movl	$5391682, 16(%rax)
	movq	-680(%rbp), %r8
	subq	$8, %rsp
	subq	$408, %rsp
	movq	%rsp, %rax
	movq	%rax, %rdx
	leaq	-672(%rbp), %rax
	movl	$50, %ecx
	movq	%rdx, %rdi
	movq	%rax, %rsi
	rep movsq
	movq	%rsi, %rax
	movq	%rdi, %rdx
	movzwl	(%rax), %ecx
	movw	%cx, (%rdx)
	leaq	2(%rdx), %rdx
	leaq	2(%rax), %rax
	movzbl	(%rax), %ecx
	movb	%cl, (%rdx)
	movq	%r8, %rdi
	call	emb_pattern_addThread@PLT
	addq	$416, %rsp
	movl	$0, -20(%rbp)
	movl	$0, -12(%rbp)
	jmp	.L337
.L345:
	movl	$0, %eax
	jmp	.L350
.L341:
	cmpl	$4, -20(%rbp)
	jne	.L337
	cmpl	$2, -12(%rbp)
	jne	.L346
	leaq	-256(%rbp), %rax
	movq	%rax, %rdi
	call	csvStrToStitchFlag
	movl	%eax, -28(%rbp)
	cmpl	$4, -28(%rbp)
	jne	.L337
	addl	$1, -4(%rbp)
	jmp	.L337
.L346:
	cmpl	$3, -12(%rbp)
	jne	.L347
	leaq	-256(%rbp), %rax
	movq	%rax, %rdi
	call	atof@PLT
	cvtsd2ss	%xmm0, %xmm0
	movss	%xmm0, -32(%rbp)
	jmp	.L337
.L347:
	cmpl	$4, -12(%rbp)
	jne	.L348
	leaq	-256(%rbp), %rax
	movq	%rax, %rdi
	call	atof@PLT
	cvtsd2ss	%xmm0, %xmm0
	movss	%xmm0, -44(%rbp)
	movl	-28(%rbp), %esi
	movss	-44(%rbp), %xmm0
	movl	-32(%rbp), %ecx
	movq	-680(%rbp), %rax
	movl	$1, %edx
	movaps	%xmm0, %xmm1
	movd	%ecx, %xmm0
	movq	%rax, %rdi
	call	emb_pattern_addStitchAbs@PLT
	movl	$0, -20(%rbp)
	movl	$0, -12(%rbp)
	jmp	.L337
.L348:
	movl	$0, %eax
	jmp	.L350
.L337:
	cmpl	$10, -40(%rbp)
	jne	.L323
	movl	$0, -20(%rbp)
	movl	$0, -12(%rbp)
	jmp	.L323
.L334:
	cmpl	$2, -24(%rbp)
	jne	.L323
	cmpl	$34, -40(%rbp)
	je	.L323
	movl	-8(%rbp), %eax
	leal	1(%rax), %edx
	movl	%edx, -8(%rbp)
	movl	-40(%rbp), %edx
	cltq
	movb	%dl, -256(%rbp,%rax)
.L323:
	movq	-688(%rbp), %rax
	movq	%rax, %rdi
	call	feof@PLT
	testl	%eax, %eax
	je	.L349
	movl	$1, %eax
.L350:
	leave
	.cfi_def_cfa 7, 8
	ret
	.cfi_endproc
.LFE35:
	.size	readCsv, .-readCsv
	.section	.rodata
	.align 8
.LC55:
	.string	"\"#\",\"Embroidermodder 2 CSV Embroidery File\"\n"
	.align 8
.LC56:
	.string	"\"#\",\"http://embroidermodder.github.io\"\n"
.LC57:
	.string	"\"#\",\" \"\n"
.LC58:
	.string	"\"#\",\"General Notes:\"\n"
	.align 8
.LC59:
	.string	"\"#\",\"This file can be read by Excel or LibreOffice as CSV (Comma Separated Value) or with a text editor.\"\n"
	.align 8
.LC60:
	.string	"\"#\",\"Lines beginning with # are comments.\"\n"
	.align 8
.LC61:
	.string	"\"#\",\"Lines beginning with > are variables: [VAR_NAME], [VAR_VALUE]\"\n"
	.align 8
.LC62:
	.string	"\"#\",\"Lines beginning with $ are threads: [THREAD_NUMBER], [RED], [GREEN], [BLUE], [DESCRIPTION], [CATALOG_NUMBER]\"\n"
	.align 8
.LC63:
	.string	"\"#\",\"Lines beginning with * are stitch entries: [STITCH_TYPE], [X], [Y]\"\n"
.LC64:
	.string	"\"#\",\"Stitch Entry Notes:\"\n"
	.align 8
.LC65:
	.string	"\"#\",\"STITCH instructs the machine to move to the position [X][Y] and then make a stitch.\"\n"
	.align 8
.LC66:
	.string	"\"#\",\"JUMP instructs the machine to move to the position [X][Y] without making a stitch.\"\n"
	.align 8
.LC67:
	.string	"\"#\",\"TRIM instructs the machine to cut the thread before moving to the position [X][Y] without making a stitch.\"\n"
	.align 8
.LC68:
	.string	"\"#\",\"COLOR instructs the machine to stop temporarily so that the user can change to a different color thread before resuming.\"\n"
	.align 8
.LC69:
	.string	"\"#\",\"END instructs the machine that the design is completed and there are no further instructions.\"\n"
	.align 8
.LC70:
	.string	"\"#\",\"UNKNOWN encompasses instructions that may not be supported currently.\"\n"
	.align 8
.LC71:
	.string	"\"#\",\"[X] and [Y] are absolute coordinates in millimeters (mm).\"\n"
	.align 8
.LC72:
	.string	"\"#\",\"[VAR_NAME]\",\"[VAR_VALUE]\"\n"
.LC73:
	.string	"\">\",\"STITCH_COUNT:\",\"%u\"\n"
.LC74:
	.string	"\">\",\"THREAD_COUNT:\",\"%u\"\n"
.LC75:
	.string	"\">\",\"EXTENTS_LEFT:\",\"%f\"\n"
.LC76:
	.string	"\">\",\"EXTENTS_TOP:\",\"%f\"\n"
.LC77:
	.string	"\">\",\"EXTENTS_RIGHT:\",\"%f\"\n"
.LC78:
	.string	"\">\",\"EXTENTS_BOTTOM:\",\"%f\"\n"
.LC79:
	.string	"\">\",\"EXTENTS_WIDTH:\",\"%f\"\n"
.LC80:
	.string	"\">\",\"EXTENTS_HEIGHT:\",\"%f\"\n"
	.align 8
.LC81:
	.string	"\"#\",\"[THREAD_NUMBER]\",\"[RED]\",\"[GREEN]\","
	.align 8
.LC82:
	.string	"\"[BLUE]\",\"[DESCRIPTION]\",\"[CATALOG_NUMBER]\"\n"
	.align 8
.LC83:
	.string	"\"$\",\"%d\",\"%d\",\"%d\",\"%d\",\"%s\",\"%s\"\n"
	.align 8
.LC84:
	.string	"\"#\",\"[STITCH_TYPE]\",\"[X]\",\"[Y]\"\n"
.LC85:
	.string	"\"*\",\"%s\",\"%f\",\"%f\"\n"
	.text
	.globl	writeCsv
	.type	writeCsv, @function
writeCsv:
.LFB36:
	.cfi_startproc
	pushq	%rbp
	.cfi_def_cfa_offset 16
	.cfi_offset 6, -16
	movq	%rsp, %rbp
	.cfi_def_cfa_register 6
	pushq	%rbx
	subq	$504, %rsp
	.cfi_offset 3, -24
	movq	%rdi, -488(%rbp)
	movq	%rsi, -496(%rbp)
	leaq	-48(%rbp), %rax
	movq	-488(%rbp), %rdx
	movq	%rdx, %rsi
	movq	%rax, %rdi
	call	emb_pattern_bounds@PLT
	movq	-496(%rbp), %rax
	movq	%rax, %rcx
	movl	$44, %edx
	movl	$1, %esi
	leaq	.LC55(%rip), %rax
	movq	%rax, %rdi
	call	fwrite@PLT
	movq	-496(%rbp), %rax
	movq	%rax, %rcx
	movl	$39, %edx
	movl	$1, %esi
	leaq	.LC56(%rip), %rax
	movq	%rax, %rdi
	call	fwrite@PLT
	movq	-496(%rbp), %rax
	movq	%rax, %rcx
	movl	$8, %edx
	movl	$1, %esi
	leaq	.LC57(%rip), %rax
	movq	%rax, %rdi
	call	fwrite@PLT
	movq	-496(%rbp), %rax
	movq	%rax, %rcx
	movl	$21, %edx
	movl	$1, %esi
	leaq	.LC58(%rip), %rax
	movq	%rax, %rdi
	call	fwrite@PLT
	movq	-496(%rbp), %rax
	movq	%rax, %rcx
	movl	$106, %edx
	movl	$1, %esi
	leaq	.LC59(%rip), %rax
	movq	%rax, %rdi
	call	fwrite@PLT
	movq	-496(%rbp), %rax
	movq	%rax, %rcx
	movl	$43, %edx
	movl	$1, %esi
	leaq	.LC60(%rip), %rax
	movq	%rax, %rdi
	call	fwrite@PLT
	movq	-496(%rbp), %rax
	movq	%rax, %rcx
	movl	$68, %edx
	movl	$1, %esi
	leaq	.LC61(%rip), %rax
	movq	%rax, %rdi
	call	fwrite@PLT
	movq	-496(%rbp), %rax
	movq	%rax, %rcx
	movl	$115, %edx
	movl	$1, %esi
	leaq	.LC62(%rip), %rax
	movq	%rax, %rdi
	call	fwrite@PLT
	movq	-496(%rbp), %rax
	movq	%rax, %rcx
	movl	$73, %edx
	movl	$1, %esi
	leaq	.LC63(%rip), %rax
	movq	%rax, %rdi
	call	fwrite@PLT
	movq	-496(%rbp), %rax
	movq	%rax, %rcx
	movl	$8, %edx
	movl	$1, %esi
	leaq	.LC57(%rip), %rax
	movq	%rax, %rdi
	call	fwrite@PLT
	movq	-496(%rbp), %rax
	movq	%rax, %rcx
	movl	$26, %edx
	movl	$1, %esi
	leaq	.LC64(%rip), %rax
	movq	%rax, %rdi
	call	fwrite@PLT
	movq	-496(%rbp), %rax
	movq	%rax, %rcx
	movl	$90, %edx
	movl	$1, %esi
	leaq	.LC65(%rip), %rax
	movq	%rax, %rdi
	call	fwrite@PLT
	movq	-496(%rbp), %rax
	movq	%rax, %rcx
	movl	$89, %edx
	movl	$1, %esi
	leaq	.LC66(%rip), %rax
	movq	%rax, %rdi
	call	fwrite@PLT
	movq	-496(%rbp), %rax
	movq	%rax, %rcx
	movl	$113, %edx
	movl	$1, %esi
	leaq	.LC67(%rip), %rax
	movq	%rax, %rdi
	call	fwrite@PLT
	movq	-496(%rbp), %rax
	movq	%rax, %rcx
	movl	$127, %edx
	movl	$1, %esi
	leaq	.LC68(%rip), %rax
	movq	%rax, %rdi
	call	fwrite@PLT
	movq	-496(%rbp), %rax
	movq	%rax, %rcx
	movl	$100, %edx
	movl	$1, %esi
	leaq	.LC69(%rip), %rax
	movq	%rax, %rdi
	call	fwrite@PLT
	movq	-496(%rbp), %rax
	movq	%rax, %rcx
	movl	$76, %edx
	movl	$1, %esi
	leaq	.LC70(%rip), %rax
	movq	%rax, %rdi
	call	fwrite@PLT
	movq	-496(%rbp), %rax
	movq	%rax, %rcx
	movl	$64, %edx
	movl	$1, %esi
	leaq	.LC71(%rip), %rax
	movq	%rax, %rdi
	call	fwrite@PLT
	movq	-496(%rbp), %rax
	movq	%rax, %rcx
	movl	$8, %edx
	movl	$1, %esi
	leaq	.LC57(%rip), %rax
	movq	%rax, %rdi
	call	fwrite@PLT
	movq	-496(%rbp), %rax
	movq	%rax, %rcx
	movl	$31, %edx
	movl	$1, %esi
	leaq	.LC72(%rip), %rax
	movq	%rax, %rdi
	call	fwrite@PLT
	movq	-488(%rbp), %rax
	movq	32(%rax), %rax
	movl	24(%rax), %eax
	movl	%eax, %edx
	movq	-496(%rbp), %rax
	leaq	.LC73(%rip), %rcx
	movq	%rcx, %rsi
	movq	%rax, %rdi
	movl	$0, %eax
	call	fprintf@PLT
	movq	-488(%rbp), %rax
	movq	24(%rax), %rax
	movl	24(%rax), %eax
	movl	%eax, %edx
	movq	-496(%rbp), %rax
	leaq	.LC74(%rip), %rcx
	movq	%rcx, %rsi
	movq	%rax, %rdi
	movl	$0, %eax
	call	fprintf@PLT
	movss	-48(%rbp), %xmm0
	pxor	%xmm2, %xmm2
	cvtss2sd	%xmm0, %xmm2
	movq	%xmm2, %rdx
	movq	-496(%rbp), %rax
	movq	%rdx, %xmm0
	leaq	.LC75(%rip), %rdx
	movq	%rdx, %rsi
	movq	%rax, %rdi
	movl	$1, %eax
	call	fprintf@PLT
	movss	-44(%rbp), %xmm0
	pxor	%xmm3, %xmm3
	cvtss2sd	%xmm0, %xmm3
	movq	%xmm3, %rdx
	movq	-496(%rbp), %rax
	movq	%rdx, %xmm0
	leaq	.LC76(%rip), %rdx
	movq	%rdx, %rsi
	movq	%rax, %rdi
	movl	$1, %eax
	call	fprintf@PLT
	movss	-48(%rbp), %xmm1
	movss	-40(%rbp), %xmm0
	addss	%xmm1, %xmm0
	pxor	%xmm4, %xmm4
	cvtss2sd	%xmm0, %xmm4
	movq	%xmm4, %rdx
	movq	-496(%rbp), %rax
	movq	%rdx, %xmm0
	leaq	.LC77(%rip), %rdx
	movq	%rdx, %rsi
	movq	%rax, %rdi
	movl	$1, %eax
	call	fprintf@PLT
	movss	-44(%rbp), %xmm1
	movss	-36(%rbp), %xmm0
	addss	%xmm1, %xmm0
	pxor	%xmm5, %xmm5
	cvtss2sd	%xmm0, %xmm5
	movq	%xmm5, %rdx
	movq	-496(%rbp), %rax
	movq	%rdx, %xmm0
	leaq	.LC78(%rip), %rdx
	movq	%rdx, %rsi
	movq	%rax, %rdi
	movl	$1, %eax
	call	fprintf@PLT
	movss	-40(%rbp), %xmm0
	pxor	%xmm6, %xmm6
	cvtss2sd	%xmm0, %xmm6
	movq	%xmm6, %rdx
	movq	-496(%rbp), %rax
	movq	%rdx, %xmm0
	leaq	.LC79(%rip), %rdx
	movq	%rdx, %rsi
	movq	%rax, %rdi
	movl	$1, %eax
	call	fprintf@PLT
	movss	-36(%rbp), %xmm0
	pxor	%xmm7, %xmm7
	cvtss2sd	%xmm0, %xmm7
	movq	%xmm7, %rdx
	movq	-496(%rbp), %rax
	movq	%rdx, %xmm0
	leaq	.LC80(%rip), %rdx
	movq	%rdx, %rsi
	movq	%rax, %rdi
	movl	$1, %eax
	call	fprintf@PLT
	movq	-496(%rbp), %rax
	movq	%rax, %rsi
	movl	$10, %edi
	call	fputc@PLT
	movq	-496(%rbp), %rax
	movq	%rax, %rcx
	movl	$40, %edx
	movl	$1, %esi
	leaq	.LC81(%rip), %rax
	movq	%rax, %rdi
	call	fwrite@PLT
	movq	-496(%rbp), %rax
	movq	%rax, %rcx
	movl	$44, %edx
	movl	$1, %esi
	leaq	.LC82(%rip), %rax
	movq	%rax, %rdi
	call	fwrite@PLT
	movl	$0, -20(%rbp)
	jmp	.L356
.L357:
	movq	-488(%rbp), %rax
	movq	24(%rax), %rax
	movq	16(%rax), %rdx
	movl	-20(%rbp), %eax
	cltq
	imulq	$403, %rax, %rax
	addq	%rax, %rdx
	leaq	-480(%rbp), %rax
	movl	$50, %ecx
	movq	%rax, %rdi
	movq	%rdx, %rsi
	rep movsq
	movq	%rsi, %rdx
	movq	%rdi, %rax
	movzwl	(%rdx), %ecx
	movw	%cx, (%rax)
	leaq	2(%rax), %rax
	leaq	2(%rdx), %rdx
	movzbl	(%rdx), %ecx
	movb	%cl, (%rax)
	movzbl	-478(%rbp), %eax
	movzbl	%al, %r8d
	movzbl	-479(%rbp), %eax
	movzbl	%al, %edi
	movzbl	-480(%rbp), %eax
	movzbl	%al, %edx
	movl	-20(%rbp), %eax
	leal	1(%rax), %esi
	movq	-496(%rbp), %rax
	leaq	-480(%rbp), %rcx
	addq	$203, %rcx
	pushq	%rcx
	leaq	-480(%rbp), %rcx
	addq	$3, %rcx
	pushq	%rcx
	movl	%r8d, %r9d
	movl	%edi, %r8d
	movl	%edx, %ecx
	movl	%esi, %edx
	leaq	.LC83(%rip), %rsi
	movq	%rax, %rdi
	movl	$0, %eax
	call	fprintf@PLT
	addq	$16, %rsp
	addl	$1, -20(%rbp)
.L356:
	movq	-488(%rbp), %rax
	movq	24(%rax), %rax
	movl	24(%rax), %eax
	cmpl	%eax, -20(%rbp)
	jl	.L357
	movq	-496(%rbp), %rax
	movq	%rax, %rsi
	movl	$10, %edi
	call	fputc@PLT
	movq	-496(%rbp), %rax
	movq	%rax, %rcx
	movl	$32, %edx
	movl	$1, %esi
	leaq	.LC84(%rip), %rax
	movq	%rax, %rdi
	call	fwrite@PLT
	movl	$0, -20(%rbp)
	jmp	.L358
.L359:
	movq	-488(%rbp), %rax
	movq	32(%rax), %rax
	movq	8(%rax), %rax
	movl	-20(%rbp), %edx
	movslq	%edx, %rdx
	salq	$4, %rdx
	addq	%rdx, %rax
	movq	8(%rax), %rdx
	movq	(%rax), %rax
	movq	%rax, -64(%rbp)
	movq	%rdx, -56(%rbp)
	movss	-56(%rbp), %xmm0
	pxor	%xmm2, %xmm2
	cvtss2sd	%xmm0, %xmm2
	movsd	%xmm2, -504(%rbp)
	movss	-60(%rbp), %xmm0
	pxor	%xmm3, %xmm3
	cvtss2sd	%xmm0, %xmm3
	movq	%xmm3, %rbx
	movl	-64(%rbp), %eax
	movl	%eax, %edi
	call	csvStitchFlagToStr
	movq	%rax, %rdx
	movq	-496(%rbp), %rax
	movsd	-504(%rbp), %xmm1
	movq	%rbx, %xmm0
	leaq	.LC85(%rip), %rcx
	movq	%rcx, %rsi
	movq	%rax, %rdi
	movl	$2, %eax
	call	fprintf@PLT
	addl	$1, -20(%rbp)
.L358:
	movq	-488(%rbp), %rax
	movq	32(%rax), %rax
	movl	24(%rax), %eax
	cmpl	%eax, -20(%rbp)
	jl	.L359
	movl	$1, %eax
	movq	-8(%rbp), %rbx
	leave
	.cfi_def_cfa 7, 8
	ret
	.cfi_endproc
.LFE36:
	.size	writeCsv, .-writeCsv
	.section	.rodata
	.align 8
.LC86:
	.string	"ERROR: dat file too short to contain header."
.LC87:
	.string	"stitchesRemaining: %d\n"
	.text
	.globl	readDat
	.type	readDat, @function
readDat:
.LFB37:
	.cfi_startproc
	pushq	%rbp
	.cfi_def_cfa_offset 16
	.cfi_offset 6, -16
	movq	%rsp, %rbp
	.cfi_def_cfa_register 6
	subq	$48, %rsp
	movq	%rdi, -40(%rbp)
	movq	%rsi, -48(%rbp)
	movq	-48(%rbp), %rax
	movl	$2, %edx
	movl	$0, %esi
	movq	%rax, %rdi
	call	fseek@PLT
	movq	-48(%rbp), %rax
	movq	%rax, %rdi
	call	ftell@PLT
	movl	%eax, -16(%rbp)
	cmpl	$255, -16(%rbp)
	jg	.L362
	leaq	.LC86(%rip), %rax
	movq	%rax, %rdi
	call	puts@PLT
	movl	$0, %eax
	jmp	.L363
.L362:
	movq	-48(%rbp), %rax
	movl	$0, %edx
	movl	$2, %esi
	movq	%rax, %rdi
	call	fseek@PLT
	movq	-48(%rbp), %rax
	movq	%rax, %rdi
	call	emb_read_u16@PLT
	movzwl	%ax, %eax
	movl	%eax, -20(%rbp)
	movl	emb_verbose(%rip), %eax
	cmpl	$1, %eax
	jle	.L364
	movl	-20(%rbp), %eax
	movl	%eax, %esi
	leaq	.LC87(%rip), %rax
	movq	%rax, %rdi
	movl	$0, %eax
	call	printf@PLT
.L364:
	movq	-48(%rbp), %rax
	movl	$0, %edx
	movl	$256, %esi
	movq	%rax, %rdi
	call	fseek@PLT
	jmp	.L365
.L372:
	movq	-48(%rbp), %rax
	movq	%rax, %rdi
	call	fgetc@PLT
	movl	%eax, -4(%rbp)
	movq	-48(%rbp), %rax
	movq	%rax, %rdi
	call	fgetc@PLT
	movl	%eax, -8(%rbp)
	movq	-48(%rbp), %rax
	movq	%rax, %rdi
	call	fgetc@PLT
	movb	%al, -21(%rbp)
	movl	$0, -12(%rbp)
	movzbl	-21(%rbp), %eax
	andl	$2, %eax
	testl	%eax, %eax
	jne	.L366
	movl	$2, -12(%rbp)
.L366:
	cmpb	$-121, -21(%rbp)
	jne	.L367
	movl	$4, -12(%rbp)
.L367:
	cmpb	$-8, -21(%rbp)
	je	.L373
	cmpl	$127, -4(%rbp)
	jle	.L370
	movl	-4(%rbp), %eax
	andl	$127, %eax
	negl	%eax
	movl	%eax, -4(%rbp)
.L370:
	cmpl	$127, -8(%rbp)
	jle	.L371
	movl	-8(%rbp), %eax
	andl	$127, %eax
	negl	%eax
	movl	%eax, -8(%rbp)
.L371:
	pxor	%xmm0, %xmm0
	cvtsi2sdl	-8(%rbp), %xmm0
	movsd	.LC30(%rip), %xmm1
	divsd	%xmm1, %xmm0
	pxor	%xmm2, %xmm2
	cvtsd2ss	%xmm0, %xmm2
	pxor	%xmm0, %xmm0
	cvtsi2sdl	-4(%rbp), %xmm0
	movsd	.LC30(%rip), %xmm1
	divsd	%xmm1, %xmm0
	pxor	%xmm3, %xmm3
	cvtsd2ss	%xmm0, %xmm3
	movd	%xmm3, %ecx
	movl	-12(%rbp), %esi
	movq	-40(%rbp), %rax
	movl	$1, %edx
	movaps	%xmm2, %xmm1
	movd	%ecx, %xmm0
	movq	%rax, %rdi
	call	emb_pattern_addStitchRel@PLT
.L365:
	movq	-48(%rbp), %rax
	movq	%rax, %rdi
	call	feof@PLT
	testl	%eax, %eax
	je	.L372
	jmp	.L369
.L373:
	nop
.L369:
	movl	$1, %eax
.L363:
	leave
	.cfi_def_cfa 7, 8
	ret
	.cfi_endproc
.LFE37:
	.size	readDat, .-readDat
	.globl	writeDat
	.type	writeDat, @function
writeDat:
.LFB38:
	.cfi_startproc
	pushq	%rbp
	.cfi_def_cfa_offset 16
	.cfi_offset 6, -16
	movq	%rsp, %rbp
	.cfi_def_cfa_register 6
	subq	$48, %rsp
	movq	%rdi, -40(%rbp)
	movq	%rsi, -48(%rbp)
	movq	-48(%rbp), %rax
	movl	$256, %edx
	movl	$0, %esi
	movq	%rax, %rdi
	call	fpad@PLT
	movl	$0, -4(%rbp)
	jmp	.L375
.L383:
	movq	-40(%rbp), %rax
	movq	32(%rax), %rax
	movq	8(%rax), %rax
	movl	-4(%rbp), %edx
	movslq	%edx, %rdx
	salq	$4, %rdx
	addq	%rdx, %rax
	movq	8(%rax), %rdx
	movq	(%rax), %rax
	movq	%rax, -32(%rbp)
	movq	%rdx, -24(%rbp)
	movb	$0, -7(%rbp)
	movb	$0, -6(%rbp)
	movb	$0, -5(%rbp)
	movl	-32(%rbp), %eax
	cmpl	$4, %eax
	jne	.L376
	movb	$-121, -5(%rbp)
.L376:
	movl	-32(%rbp), %eax
	cmpl	$16, %eax
	jne	.L377
	movzbl	-5(%rbp), %eax
	orl	$-8, %eax
	movb	%al, -5(%rbp)
	jmp	.L378
.L377:
	movl	-32(%rbp), %eax
	cmpl	$2, %eax
	je	.L378
	movzbl	-5(%rbp), %eax
	orl	$2, %eax
	movb	%al, -5(%rbp)
.L378:
	movss	-28(%rbp), %xmm1
	pxor	%xmm0, %xmm0
	comiss	%xmm1, %xmm0
	jbe	.L379
	movss	-28(%rbp), %xmm1
	movss	.LC88(%rip), %xmm0
	addss	%xmm1, %xmm0
	cvttss2sil	%xmm0, %eax
	movb	%al, -7(%rbp)
.L379:
	movss	-24(%rbp), %xmm1
	pxor	%xmm0, %xmm0
	comiss	%xmm1, %xmm0
	jbe	.L381
	movss	-24(%rbp), %xmm1
	movss	.LC88(%rip), %xmm0
	addss	%xmm1, %xmm0
	cvttss2sil	%xmm0, %eax
	movb	%al, -6(%rbp)
.L381:
	movq	-48(%rbp), %rdx
	leaq	-7(%rbp), %rax
	movq	%rdx, %rcx
	movl	$3, %edx
	movl	$1, %esi
	movq	%rax, %rdi
	call	fwrite@PLT
	addl	$1, -4(%rbp)
.L375:
	movq	-40(%rbp), %rax
	movq	32(%rax), %rax
	movl	24(%rax), %eax
	cmpl	%eax, -4(%rbp)
	jl	.L383
	movl	$1, %eax
	leave
	.cfi_def_cfa 7, 8
	ret
	.cfi_endproc
.LFE38:
	.size	writeDat, .-writeDat
	.section	.rodata
.LC89:
	.string	"readDem is not implemented."
	.text
	.globl	readDem
	.type	readDem, @function
readDem:
.LFB39:
	.cfi_startproc
	pushq	%rbp
	.cfi_def_cfa_offset 16
	.cfi_offset 6, -16
	movq	%rsp, %rbp
	.cfi_def_cfa_register 6
	subq	$16, %rsp
	movq	%rdi, -8(%rbp)
	movq	%rsi, -16(%rbp)
	leaq	.LC89(%rip), %rax
	movq	%rax, %rdi
	call	puts@PLT
	leaq	.LC42(%rip), %rax
	movq	%rax, %rdi
	call	puts@PLT
	movq	-16(%rbp), %rdx
	movq	-8(%rbp), %rax
	movq	%rdx, %rsi
	movq	%rax, %rdi
	call	readDst
	leave
	.cfi_def_cfa 7, 8
	ret
	.cfi_endproc
.LFE39:
	.size	readDem, .-readDem
	.section	.rodata
.LC90:
	.string	"writeDem is not implemented."
	.text
	.globl	writeDem
	.type	writeDem, @function
writeDem:
.LFB40:
	.cfi_startproc
	pushq	%rbp
	.cfi_def_cfa_offset 16
	.cfi_offset 6, -16
	movq	%rsp, %rbp
	.cfi_def_cfa_register 6
	subq	$16, %rsp
	movq	%rdi, -8(%rbp)
	movq	%rsi, -16(%rbp)
	leaq	.LC90(%rip), %rax
	movq	%rax, %rdi
	call	puts@PLT
	leaq	.LC42(%rip), %rax
	movq	%rax, %rdi
	call	puts@PLT
	movq	-16(%rbp), %rdx
	movq	-8(%rbp), %rax
	movq	%rdx, %rsi
	movq	%rax, %rdi
	call	writeDst
	leave
	.cfi_def_cfa 7, 8
	ret
	.cfi_endproc
.LFE40:
	.size	writeDem, .-writeDem
	.globl	readDsb
	.type	readDsb, @function
readDsb:
.LFB41:
	.cfi_startproc
	pushq	%rbp
	.cfi_def_cfa_offset 16
	.cfi_offset 6, -16
	movq	%rsp, %rbp
	.cfi_def_cfa_register 6
	subq	$560, %rsp
	movq	%rdi, -552(%rbp)
	movq	%rsi, -560(%rbp)
	movq	-560(%rbp), %rdx
	leaq	-528(%rbp), %rax
	movq	%rdx, %rcx
	movl	$512, %edx
	movl	$1, %esi
	movq	%rax, %rdi
	call	fread@PLT
	cmpq	$512, %rax
	je	.L394
	leaq	.LC29(%rip), %rax
	movq	%rax, %rdi
	call	puts@PLT
	movl	$0, %eax
	jmp	.L403
.L402:
	movl	$0, -12(%rbp)
	movzbl	-531(%rbp), %eax
	movb	%al, -13(%rbp)
	movzbl	-530(%rbp), %eax
	movzbl	%al, %eax
	movl	%eax, -8(%rbp)
	movzbl	-529(%rbp), %eax
	movzbl	%al, %eax
	movl	%eax, -4(%rbp)
	movzbl	-13(%rbp), %eax
	andl	$1, %eax
	testl	%eax, %eax
	je	.L395
	movl	$2, -12(%rbp)
.L395:
	movzbl	-13(%rbp), %eax
	andl	$32, %eax
	testl	%eax, %eax
	je	.L396
	negl	-4(%rbp)
.L396:
	movzbl	-13(%rbp), %eax
	andl	$64, %eax
	testl	%eax, %eax
	je	.L397
	negl	-8(%rbp)
.L397:
	movzbl	-13(%rbp), %eax
	andl	$5, %eax
	cmpl	$5, %eax
	jne	.L398
	movl	$4, -12(%rbp)
.L398:
	cmpb	$-8, -13(%rbp)
	je	.L399
	cmpb	$-111, -13(%rbp)
	je	.L399
	cmpb	$-121, -13(%rbp)
	jne	.L400
.L399:
	movq	-552(%rbp), %rax
	movl	$1, %edx
	movl	$16, %esi
	pxor	%xmm1, %xmm1
	movl	.LC17(%rip), %ecx
	movd	%ecx, %xmm0
	movq	%rax, %rdi
	call	emb_pattern_addStitchRel@PLT
	jmp	.L401
.L400:
	pxor	%xmm0, %xmm0
	cvtsi2sdl	-8(%rbp), %xmm0
	movsd	.LC30(%rip), %xmm1
	divsd	%xmm1, %xmm0
	pxor	%xmm2, %xmm2
	cvtsd2ss	%xmm0, %xmm2
	pxor	%xmm0, %xmm0
	cvtsi2sdl	-4(%rbp), %xmm0
	movsd	.LC30(%rip), %xmm1
	divsd	%xmm1, %xmm0
	pxor	%xmm3, %xmm3
	cvtsd2ss	%xmm0, %xmm3
	movd	%xmm3, %ecx
	movl	-12(%rbp), %esi
	movq	-552(%rbp), %rax
	movl	$1, %edx
	movaps	%xmm2, %xmm1
	movd	%ecx, %xmm0
	movq	%rax, %rdi
	call	emb_pattern_addStitchRel@PLT
.L394:
	movq	-560(%rbp), %rdx
	leaq	-531(%rbp), %rax
	movq	%rdx, %rcx
	movl	$3, %edx
	movl	$1, %esi
	movq	%rax, %rdi
	call	fread@PLT
	cmpq	$3, %rax
	je	.L402
.L401:
	movl	$1, %eax
.L403:
	leave
	.cfi_def_cfa 7, 8
	ret
	.cfi_endproc
.LFE41:
	.size	readDsb, .-readDsb
	.section	.rodata
.LC91:
	.string	"writeDsb is not implemented"
	.text
	.globl	writeDsb
	.type	writeDsb, @function
writeDsb:
.LFB42:
	.cfi_startproc
	pushq	%rbp
	.cfi_def_cfa_offset 16
	.cfi_offset 6, -16
	movq	%rsp, %rbp
	.cfi_def_cfa_register 6
	subq	$16, %rsp
	movq	%rdi, -8(%rbp)
	movq	%rsi, -16(%rbp)
	leaq	.LC91(%rip), %rax
	movq	%rax, %rdi
	call	puts@PLT
	leaq	.LC42(%rip), %rax
	movq	%rax, %rdi
	call	puts@PLT
	movq	-16(%rbp), %rdx
	movq	-8(%rbp), %rax
	movq	%rdx, %rsi
	movq	%rax, %rdi
	call	writeDst
	movl	$0, %eax
	leave
	.cfi_def_cfa 7, 8
	ret
	.cfi_endproc
.LFE42:
	.size	writeDsb, .-writeDsb
	.globl	decode_record_flags
	.type	decode_record_flags, @function
decode_record_flags:
.LFB43:
	.cfi_startproc
	pushq	%rbp
	.cfi_def_cfa_offset 16
	.cfi_offset 6, -16
	movq	%rsp, %rbp
	.cfi_def_cfa_register 6
	movl	%edi, %eax
	movb	%al, -4(%rbp)
	cmpb	$-13, -4(%rbp)
	jne	.L407
	movl	$16, %eax
	jmp	.L408
.L407:
	movzbl	-4(%rbp), %eax
	andl	$64, %eax
	testl	%eax, %eax
	je	.L409
	movl	$4, %eax
	jmp	.L408
.L409:
	movzbl	-4(%rbp), %eax
	testb	%al, %al
	jns	.L410
	movl	$1, %eax
	jmp	.L408
.L410:
	movl	$0, %eax
.L408:
	popq	%rbp
	.cfi_def_cfa 7, 8
	ret
	.cfi_endproc
.LFE43:
	.size	decode_record_flags, .-decode_record_flags
	.globl	encode_record
	.type	encode_record, @function
encode_record:
.LFB44:
	.cfi_startproc
	pushq	%rbp
	.cfi_def_cfa_offset 16
	.cfi_offset 6, -16
	movq	%rsp, %rbp
	.cfi_def_cfa_register 6
	subq	$64, %rsp
	movq	%rdi, -40(%rbp)
	movl	%esi, -44(%rbp)
	movl	%edx, -48(%rbp)
	movl	%ecx, -52(%rbp)
	movl	-48(%rbp), %edx
	movl	-44(%rbp), %ecx
	leaq	-19(%rbp), %rax
	movl	%ecx, %esi
	movq	%rax, %rdi
	call	encode_tajima_ternary@PLT
	movzbl	-17(%rbp), %eax
	orl	$3, %eax
	movb	%al, -17(%rbp)
	movl	-52(%rbp), %eax
	andl	$16, %eax
	testl	%eax, %eax
	je	.L412
	movb	$0, -19(%rbp)
	movb	$0, -18(%rbp)
	movb	$-115, -17(%rbp)
.L412:
	movl	-52(%rbp), %eax
	andl	$2, %eax
	testl	%eax, %eax
	je	.L413
	movl	$5, -8(%rbp)
	movl	-44(%rbp), %eax
	cltd
	idivl	-8(%rbp)
	movl	%eax, -12(%rbp)
	movl	-48(%rbp), %eax
	cltd
	idivl	-8(%rbp)
	movl	%eax, -16(%rbp)
	movl	$1, -4(%rbp)
	jmp	.L414
.L415:
	movl	-16(%rbp), %edx
	movl	-12(%rbp), %esi
	movq	-40(%rbp), %rax
	movl	$1, %ecx
	movq	%rax, %rdi
	call	encode_record
	addl	$1, -4(%rbp)
.L414:
	movl	-4(%rbp), %eax
	cmpl	-8(%rbp), %eax
	jl	.L415
	movl	-8(%rbp), %eax
	subl	$1, %eax
	imull	-16(%rbp), %eax
	movl	-48(%rbp), %edx
	subl	%eax, %edx
	movl	-8(%rbp), %eax
	subl	$1, %eax
	imull	-12(%rbp), %eax
	movl	-44(%rbp), %ecx
	subl	%eax, %ecx
	movl	%ecx, %esi
	movq	-40(%rbp), %rax
	movl	$1, %ecx
	movq	%rax, %rdi
	call	encode_record
	jmp	.L411
.L413:
	movl	-52(%rbp), %eax
	andl	$3, %eax
	testl	%eax, %eax
	je	.L417
	movzbl	-17(%rbp), %eax
	orl	$-125, %eax
	movb	%al, -17(%rbp)
.L417:
	movl	-52(%rbp), %eax
	andl	$4, %eax
	testl	%eax, %eax
	je	.L418
	movzbl	-17(%rbp), %eax
	orl	$-61, %eax
	movb	%al, -17(%rbp)
.L418:
	movq	-40(%rbp), %rdx
	leaq	-19(%rbp), %rax
	movq	%rdx, %rcx
	movl	$3, %edx
	movl	$1, %esi
	movq	%rax, %rdi
	call	fwrite@PLT
.L411:
	leave
	.cfi_def_cfa 7, 8
	ret
	.cfi_endproc
.LFE44:
	.size	encode_record, .-encode_record
	.globl	set_dst_variable
	.type	set_dst_variable, @function
set_dst_variable:
.LFB45:
	.cfi_startproc
	pushq	%rbp
	.cfi_def_cfa_offset 16
	.cfi_offset 6, -16
	movq	%rsp, %rbp
	.cfi_def_cfa_register 6
	subq	$448, %rsp
	movq	%rdi, -424(%rbp)
	movq	%rsi, -432(%rbp)
	movq	%rdx, -440(%rbp)
	movl	$0, -4(%rbp)
	jmp	.L420
.L422:
	movl	-4(%rbp), %edx
	movq	-432(%rbp), %rax
	addq	%rdx, %rax
	movzbl	(%rax), %eax
	cmpb	$96, %al
	jle	.L421
	movl	-4(%rbp), %edx
	movq	-432(%rbp), %rax
	addq	%rdx, %rax
	movzbl	(%rax), %eax
	cmpb	$122, %al
	jg	.L421
	movl	-4(%rbp), %edx
	movq	-432(%rbp), %rax
	addq	%rdx, %rax
	movzbl	(%rax), %eax
	leal	-32(%rax), %ecx
	movl	-4(%rbp), %edx
	movq	-432(%rbp), %rax
	addq	%rdx, %rax
	movl	%ecx, %edx
	movb	%dl, (%rax)
.L421:
	addl	$1, -4(%rbp)
.L420:
	movq	-432(%rbp), %rax
	movq	%rax, %rdi
	call	strlen@PLT
	cmpl	-4(%rbp), %eax
	jnb	.L422
	movq	-432(%rbp), %rax
	movzbl	(%rax), %eax
	movsbl	%al, %eax
	sall	$8, %eax
	movl	%eax, %edx
	movq	-432(%rbp), %rax
	addq	$1, %rax
	movzbl	(%rax), %eax
	movsbl	%al, %eax
	addl	%edx, %eax
	cmpl	$21571, %eax
	je	.L423
	cmpl	$21571, %eax
	jg	.L432
	cmpl	$21332, %eax
	je	.L433
	cmpl	$21332, %eax
	jg	.L432
	cmpl	$20548, %eax
	je	.L426
	cmpl	$20548, %eax
	jg	.L432
	cmpl	$19801, %eax
	jg	.L432
	cmpl	$19800, %eax
	jge	.L434
	cmpl	$19521, %eax
	je	.L435
	cmpl	$19521, %eax
	jg	.L432
	cmpl	$17232, %eax
	je	.L436
	cmpl	$17232, %eax
	jg	.L432
	cmpl	$17231, %eax
	je	.L433
	cmpl	$17231, %eax
	jg	.L432
	cmpl	$16729, %eax
	jg	.L432
	cmpl	$16728, %eax
	jge	.L434
	cmpl	$16725, %eax
	je	.L436
	cmpl	$16725, %eax
	jg	.L432
	cmpl	$11097, %eax
	jg	.L430
	cmpl	$11096, %eax
	jge	.L433
	jmp	.L432
.L430:
	subl	$11608, %eax
	cmpl	$1, %eax
	ja	.L432
	jmp	.L433
.L426:
	movq	-440(%rbp), %rax
	movq	%rax, %rdi
	call	strlen@PLT
	jmp	.L431
.L423:
	movq	-440(%rbp), %rax
	movq	%rax, %rdi
	call	embColor_fromHexStr@PLT
	cltq
	movb	%al, -416(%rbp)
	movzbl	%ah, %edx
	movb	%dl, -415(%rbp)
	shrq	$16, %rax
	andb	$-1, %ah
	movb	%al, -414(%rbp)
	movb	$0, -413(%rbp)
	movb	$0, -213(%rbp)
	movq	-424(%rbp), %r8
	subq	$8, %rsp
	subq	$408, %rsp
	movq	%rsp, %rax
	movq	%rax, %rdx
	leaq	-416(%rbp), %rax
	movl	$50, %ecx
	movq	%rdx, %rdi
	movq	%rax, %rsi
	rep movsq
	movq	%rsi, %rax
	movq	%rdi, %rdx
	movzwl	(%rax), %ecx
	movw	%cx, (%rdx)
	leaq	2(%rdx), %rdx
	leaq	2(%rax), %rax
	movzbl	(%rax), %ecx
	movb	%cl, (%rdx)
	movq	%r8, %rdi
	call	emb_pattern_addThread@PLT
	addq	$416, %rsp
	jmp	.L431
.L432:
	nop
	jmp	.L437
.L433:
	nop
	jmp	.L437
.L434:
	nop
	jmp	.L437
.L435:
	nop
	jmp	.L437
.L436:
	nop
.L431:
.L437:
	nop
	leave
	.cfi_def_cfa 7, 8
	ret
	.cfi_endproc
.LFE45:
	.size	set_dst_variable, .-set_dst_variable
	.section	.rodata
	.align 8
.LC92:
	.string	"ERROR: Failed to read header bytes."
	.text
	.globl	readDst
	.type	readDst, @function
readDst:
.LFB46:
	.cfi_startproc
	pushq	%rbp
	.cfi_def_cfa_offset 16
	.cfi_offset 6, -16
	movq	%rsp, %rbp
	.cfi_def_cfa_register 6
	subq	$1088, %rsp
	movq	%rdi, -1080(%rbp)
	movq	%rsi, -1088(%rbp)
	movl	$0, -4(%rbp)
	movq	-1088(%rbp), %rdx
	leaq	-1056(%rbp), %rax
	movq	%rdx, %rcx
	movl	$512, %edx
	movl	$1, %esi
	movq	%rax, %rdi
	call	fread@PLT
	cmpq	$512, %rax
	je	.L439
	leaq	.LC92(%rip), %rax
	movq	%rax, %rdi
	call	puts@PLT
	movl	$0, %eax
	jmp	.L452
.L439:
	movl	$0, -4(%rbp)
	jmp	.L441
.L447:
	movl	-4(%rbp), %eax
	cltq
	movzbl	-1056(%rbp,%rax), %eax
	cmpb	$58, %al
	jne	.L442
	cmpl	$1, -4(%rbp)
	jle	.L442
	movl	-4(%rbp), %eax
	subl	$2, %eax
	cltq
	movzbl	-1056(%rbp,%rax), %eax
	movb	%al, -15(%rbp)
	movl	-4(%rbp), %eax
	subl	$1, %eax
	cltq
	movzbl	-1056(%rbp,%rax), %eax
	movb	%al, -14(%rbp)
	movb	$0, -13(%rbp)
	movl	-4(%rbp), %eax
	addl	$1, %eax
	movl	%eax, -12(%rbp)
	addl	$1, -4(%rbp)
	jmp	.L443
.L446:
	movl	-4(%rbp), %eax
	cltq
	movzbl	-1056(%rbp,%rax), %eax
	cmpb	$13, %al
	jne	.L444
	movl	-4(%rbp), %eax
	cltq
	movzbl	-1056(%rbp,%rax), %eax
	cmpb	$58, %al
	jne	.L445
	subl	$2, -4(%rbp)
.L445:
	movl	-4(%rbp), %eax
	subl	-12(%rbp), %eax
	movslq	%eax, %rdx
	leaq	-1056(%rbp), %rcx
	movl	-12(%rbp), %eax
	cltq
	addq	%rax, %rcx
	leaq	-528(%rbp), %rax
	movq	%rcx, %rsi
	movq	%rax, %rdi
	call	memcpy@PLT
	movl	-4(%rbp), %eax
	subl	-12(%rbp), %eax
	cltq
	movb	$0, -528(%rbp,%rax)
	leaq	-528(%rbp), %rdx
	leaq	-15(%rbp), %rcx
	movq	-1080(%rbp), %rax
	movq	%rcx, %rsi
	movq	%rax, %rdi
	call	set_dst_variable
	jmp	.L442
.L444:
	addl	$1, -4(%rbp)
.L443:
	cmpl	$511, -4(%rbp)
	jle	.L446
.L442:
	addl	$1, -4(%rbp)
.L441:
	cmpl	$511, -4(%rbp)
	jle	.L447
	jmp	.L448
.L451:
	leaq	-1064(%rbp), %rdx
	leaq	-1060(%rbp), %rcx
	leaq	-531(%rbp), %rax
	movq	%rcx, %rsi
	movq	%rax, %rdi
	call	decode_tajima_ternary@PLT
	movzbl	-529(%rbp), %eax
	movzbl	%al, %eax
	movl	%eax, %edi
	call	decode_record_flags
	movl	%eax, -8(%rbp)
	cmpl	$16, -8(%rbp)
	je	.L453
	movl	-1064(%rbp), %eax
	pxor	%xmm0, %xmm0
	cvtsi2sdl	%eax, %xmm0
	movsd	.LC30(%rip), %xmm1
	divsd	%xmm1, %xmm0
	pxor	%xmm2, %xmm2
	cvtsd2ss	%xmm0, %xmm2
	movl	-1060(%rbp), %eax
	pxor	%xmm0, %xmm0
	cvtsi2sdl	%eax, %xmm0
	movsd	.LC30(%rip), %xmm1
	divsd	%xmm1, %xmm0
	pxor	%xmm3, %xmm3
	cvtsd2ss	%xmm0, %xmm3
	movd	%xmm3, %ecx
	movl	-8(%rbp), %esi
	movq	-1080(%rbp), %rax
	movl	$1, %edx
	movaps	%xmm2, %xmm1
	movd	%ecx, %xmm0
	movq	%rax, %rdi
	call	emb_pattern_addStitchRel@PLT
.L448:
	movq	-1088(%rbp), %rdx
	leaq	-531(%rbp), %rax
	movq	%rdx, %rcx
	movl	$3, %edx
	movl	$1, %esi
	movq	%rax, %rdi
	call	fread@PLT
	cmpq	$3, %rax
	je	.L451
	jmp	.L450
.L453:
	nop
.L450:
	movl	$1, %eax
.L452:
	leave
	.cfi_def_cfa 7, 8
	ret
	.cfi_endproc
.LFE46:
	.size	readDst, .-readDst
	.section	.rodata
.LC94:
	.string	"Untitled"
.LC95:
	.string	"LA:%-16s\r"
.LC96:
	.string	"ST:%7d\r"
.LC97:
	.string	"CO:%3d\r"
.LC99:
	.string	"+X:%5d\r-X:%5d\r+Y:%5d\r-Y:%5d\r"
	.align 8
.LC100:
	.string	"AX:+%5d\rAY:+%5d\rMX:+%5d\rMY:+%5d\rPD:%6s\r\032"
.LC102:
	.string	"%d %f %f %d %d %f %f %d\n"
.LC103:
	.string	"\241"
	.string	""
	.string	""
	.text
	.globl	writeDst
	.type	writeDst, @function
writeDst:
.LFB47:
	.cfi_startproc
	pushq	%rbp
	.cfi_def_cfa_offset 16
	.cfi_offset 6, -16
	movq	%rsp, %rbp
	.cfi_def_cfa_register 6
	subq	$304, %rsp
	movq	%rdi, -296(%rbp)
	movq	%rsi, -304(%rbp)
	movq	-296(%rbp), %rax
	movss	.LC93(%rip), %xmm1
	movl	.LC93(%rip), %edx
	movd	%edx, %xmm0
	movq	%rax, %rdi
	call	emb_pattern_correctForMaxStitchLength@PLT
	leaq	-64(%rbp), %rax
	movq	-296(%rbp), %rdx
	movq	%rdx, %rsi
	movq	%rax, %rdi
	call	emb_pattern_bounds@PLT
	movq	-304(%rbp), %rax
	leaq	.LC94(%rip), %rdx
	leaq	.LC95(%rip), %rcx
	movq	%rcx, %rsi
	movq	%rax, %rdi
	movl	$0, %eax
	call	fprintf@PLT
	movq	-296(%rbp), %rax
	movq	32(%rax), %rax
	movl	24(%rax), %edx
	movq	-304(%rbp), %rax
	leaq	.LC96(%rip), %rcx
	movq	%rcx, %rsi
	movq	%rax, %rdi
	movl	$0, %eax
	call	fprintf@PLT
	movq	-296(%rbp), %rax
	movq	24(%rax), %rax
	movl	24(%rax), %eax
	leal	-1(%rax), %edx
	movq	-304(%rbp), %rax
	leaq	.LC97(%rip), %rcx
	movq	%rcx, %rsi
	movq	%rax, %rdi
	movl	$0, %eax
	call	fprintf@PLT
	movss	-60(%rbp), %xmm0
	movss	.LC98(%rip), %xmm1
	andps	%xmm1, %xmm0
	pxor	%xmm1, %xmm1
	cvtss2sd	%xmm0, %xmm1
	movsd	.LC30(%rip), %xmm0
	mulsd	%xmm1, %xmm0
	cvttsd2sil	%xmm0, %edi
	movss	-60(%rbp), %xmm1
	movss	-52(%rbp), %xmm0
	addss	%xmm1, %xmm0
	pxor	%xmm1, %xmm1
	cvtss2sd	%xmm0, %xmm1
	movsd	.LC30(%rip), %xmm0
	mulsd	%xmm1, %xmm0
	cvttsd2sil	%xmm0, %esi
	movss	-64(%rbp), %xmm0
	movss	.LC98(%rip), %xmm1
	andps	%xmm1, %xmm0
	pxor	%xmm1, %xmm1
	cvtss2sd	%xmm0, %xmm1
	movsd	.LC30(%rip), %xmm0
	mulsd	%xmm1, %xmm0
	cvttsd2sil	%xmm0, %ecx
	movss	-64(%rbp), %xmm1
	movss	-56(%rbp), %xmm0
	addss	%xmm1, %xmm0
	pxor	%xmm1, %xmm1
	cvtss2sd	%xmm0, %xmm1
	movsd	.LC30(%rip), %xmm0
	mulsd	%xmm1, %xmm0
	cvttsd2sil	%xmm0, %edx
	movq	-304(%rbp), %rax
	movl	%edi, %r9d
	movl	%esi, %r8d
	leaq	.LC99(%rip), %rsi
	movq	%rax, %rdi
	movl	$0, %eax
	call	fprintf@PLT
	movl	$0, -8(%rbp)
	movl	-8(%rbp), %eax
	movl	%eax, -12(%rbp)
	movl	-12(%rbp), %eax
	movl	%eax, -16(%rbp)
	movl	-16(%rbp), %eax
	movl	%eax, -20(%rbp)
	leaq	-272(%rbp), %rax
	movl	$707406378, (%rax)
	movl	$2763306, 3(%rax)
	movl	-8(%rbp), %r8d
	movl	-12(%rbp), %edi
	movl	-16(%rbp), %ecx
	movl	-20(%rbp), %edx
	movq	-304(%rbp), %rax
	subq	$8, %rsp
	leaq	-272(%rbp), %rsi
	pushq	%rsi
	movl	%r8d, %r9d
	movl	%edi, %r8d
	leaq	.LC100(%rip), %rsi
	movq	%rax, %rdi
	movl	$0, %eax
	call	fprintf@PLT
	addq	$16, %rsp
	movq	-304(%rbp), %rax
	movl	$387, %edx
	movl	$32, %esi
	movq	%rax, %rdi
	call	fpad@PLT
	pxor	%xmm0, %xmm0
	movss	%xmm0, -72(%rbp)
	pxor	%xmm0, %xmm0
	movss	%xmm0, -68(%rbp)
	movl	$0, -4(%rbp)
	jmp	.L455
.L457:
	movq	-296(%rbp), %rax
	movq	32(%rax), %rax
	movq	8(%rax), %rax
	movl	-4(%rbp), %edx
	movslq	%edx, %rdx
	salq	$4, %rdx
	addq	%rdx, %rax
	movq	8(%rax), %rdx
	movq	(%rax), %rax
	movq	%rax, -288(%rbp)
	movq	%rdx, -280(%rbp)
	movss	-284(%rbp), %xmm0
	movss	-72(%rbp), %xmm2
	movaps	%xmm0, %xmm1
	subss	%xmm2, %xmm1
	movss	.LC18(%rip), %xmm0
	mulss	%xmm0, %xmm1
	movd	%xmm1, %eax
	movd	%eax, %xmm0
	call	emb_round@PLT
	movl	%eax, -24(%rbp)
	movss	-280(%rbp), %xmm0
	movss	-68(%rbp), %xmm2
	movaps	%xmm0, %xmm1
	subss	%xmm2, %xmm1
	movss	.LC18(%rip), %xmm0
	mulss	%xmm0, %xmm1
	movd	%xmm1, %eax
	movd	%eax, %xmm0
	call	emb_round@PLT
	movl	%eax, -28(%rbp)
	movss	-72(%rbp), %xmm1
	pxor	%xmm2, %xmm2
	cvtsi2ssl	-24(%rbp), %xmm2
	movss	.LC101(%rip), %xmm0
	mulss	%xmm2, %xmm0
	addss	%xmm1, %xmm0
	movss	%xmm0, -72(%rbp)
	movss	-68(%rbp), %xmm1
	pxor	%xmm2, %xmm2
	cvtsi2ssl	-28(%rbp), %xmm2
	movss	.LC101(%rip), %xmm0
	mulss	%xmm2, %xmm0
	addss	%xmm1, %xmm0
	movss	%xmm0, -68(%rbp)
	movl	emb_verbose(%rip), %eax
	testl	%eax, %eax
	jle	.L456
	movl	-288(%rbp), %edi
	movss	-68(%rbp), %xmm0
	pxor	%xmm2, %xmm2
	cvtss2sd	%xmm0, %xmm2
	movss	-72(%rbp), %xmm0
	pxor	%xmm1, %xmm1
	cvtss2sd	%xmm0, %xmm1
	movss	-280(%rbp), %xmm0
	cvtss2sd	%xmm0, %xmm0
	movss	-284(%rbp), %xmm3
	pxor	%xmm4, %xmm4
	cvtss2sd	%xmm3, %xmm4
	movq	%xmm4, %rsi
	movl	-28(%rbp), %ecx
	movl	-24(%rbp), %edx
	movl	-4(%rbp), %eax
	movl	%edi, %r8d
	movapd	%xmm2, %xmm3
	movapd	%xmm1, %xmm2
	movapd	%xmm0, %xmm1
	movq	%rsi, %xmm0
	movl	%eax, %esi
	leaq	.LC102(%rip), %rax
	movq	%rax, %rdi
	movl	$4, %eax
	call	printf@PLT
.L456:
	movl	-288(%rbp), %ecx
	movl	-28(%rbp), %edx
	movl	-24(%rbp), %esi
	movq	-304(%rbp), %rax
	movq	%rax, %rdi
	call	encode_record
	addl	$1, -4(%rbp)
.L455:
	movq	-296(%rbp), %rax
	movq	32(%rax), %rax
	movl	24(%rax), %eax
	cmpl	%eax, -4(%rbp)
	jl	.L457
	movq	-304(%rbp), %rax
	movq	%rax, %rcx
	movl	$3, %edx
	movl	$1, %esi
	leaq	.LC103(%rip), %rax
	movq	%rax, %rdi
	call	fwrite@PLT
	movl	$1, %eax
	leave
	.cfi_def_cfa 7, 8
	ret
	.cfi_endproc
.LFE47:
	.size	writeDst, .-writeDst
	.globl	readDsz
	.type	readDsz, @function
readDsz:
.LFB48:
	.cfi_startproc
	pushq	%rbp
	.cfi_def_cfa_offset 16
	.cfi_offset 6, -16
	movq	%rsp, %rbp
	.cfi_def_cfa_register 6
	subq	$32, %rsp
	movq	%rdi, -24(%rbp)
	movq	%rsi, -32(%rbp)
	movq	-32(%rbp), %rax
	movl	$0, %edx
	movl	$512, %esi
	movq	%rax, %rdi
	call	fseek@PLT
	jmp	.L460
.L467:
	movl	$0, -12(%rbp)
	movzbl	-16(%rbp), %eax
	movzbl	%al, %eax
	movl	%eax, -8(%rbp)
	movzbl	-15(%rbp), %eax
	movzbl	%al, %eax
	movl	%eax, -4(%rbp)
	movzbl	-14(%rbp), %eax
	movb	%al, -13(%rbp)
	movzbl	-13(%rbp), %eax
	andl	$1, %eax
	testl	%eax, %eax
	je	.L461
	movl	$2, -12(%rbp)
.L461:
	movzbl	-13(%rbp), %eax
	andl	$32, %eax
	testl	%eax, %eax
	je	.L462
	negl	-8(%rbp)
.L462:
	movzbl	-13(%rbp), %eax
	andl	$64, %eax
	testl	%eax, %eax
	je	.L463
	negl	-4(%rbp)
.L463:
	movzbl	-13(%rbp), %eax
	andl	$14, %eax
	testl	%eax, %eax
	je	.L464
	movl	$4, -12(%rbp)
.L464:
	movzbl	-13(%rbp), %eax
	andl	$16, %eax
	testl	%eax, %eax
	je	.L465
	movq	-24(%rbp), %rax
	movl	$1, %edx
	movl	$16, %esi
	pxor	%xmm1, %xmm1
	movl	.LC17(%rip), %ecx
	movd	%ecx, %xmm0
	movq	%rax, %rdi
	call	emb_pattern_addStitchRel@PLT
	jmp	.L466
.L465:
	pxor	%xmm0, %xmm0
	cvtsi2ssl	-8(%rbp), %xmm0
	movss	.LC18(%rip), %xmm1
	movaps	%xmm0, %xmm2
	divss	%xmm1, %xmm2
	pxor	%xmm0, %xmm0
	cvtsi2ssl	-4(%rbp), %xmm0
	movss	.LC18(%rip), %xmm1
	divss	%xmm1, %xmm0
	movd	%xmm0, %ecx
	movl	-12(%rbp), %esi
	movq	-24(%rbp), %rax
	movl	$1, %edx
	movaps	%xmm2, %xmm1
	movd	%ecx, %xmm0
	movq	%rax, %rdi
	call	emb_pattern_addStitchRel@PLT
.L460:
	movq	-32(%rbp), %rdx
	leaq	-16(%rbp), %rax
	movq	%rdx, %rcx
	movl	$3, %edx
	movl	$1, %esi
	movq	%rax, %rdi
	call	fread@PLT
	cmpq	$3, %rax
	je	.L467
.L466:
	movl	$1, %eax
	leave
	.cfi_def_cfa 7, 8
	ret
	.cfi_endproc
.LFE48:
	.size	readDsz, .-readDsz
	.globl	writeDsz
	.type	writeDsz, @function
writeDsz:
.LFB49:
	.cfi_startproc
	pushq	%rbp
	.cfi_def_cfa_offset 16
	.cfi_offset 6, -16
	movq	%rsp, %rbp
	.cfi_def_cfa_register 6
	subq	$80, %rsp
	movq	%rdi, -72(%rbp)
	movq	%rsi, -80(%rbp)
	movq	-80(%rbp), %rax
	movl	$200, %edx
	movl	$32, %esi
	movq	%rax, %rdi
	call	fpad@PLT
	pxor	%xmm0, %xmm0
	movss	%xmm0, -20(%rbp)
	pxor	%xmm0, %xmm0
	movss	%xmm0, -16(%rbp)
	movl	$0, -4(%rbp)
	jmp	.L470
.L478:
	movq	-72(%rbp), %rax
	movq	32(%rax), %rax
	movq	8(%rax), %rax
	movl	-4(%rbp), %edx
	movslq	%edx, %rdx
	salq	$4, %rdx
	addq	%rdx, %rax
	movq	8(%rax), %rdx
	movq	(%rax), %rax
	movq	%rax, -48(%rbp)
	movq	%rdx, -40(%rbp)
	movss	-44(%rbp), %xmm0
	movss	%xmm0, -28(%rbp)
	movss	-40(%rbp), %xmm0
	movss	%xmm0, -24(%rbp)
	movq	-20(%rbp), %rdx
	movq	-28(%rbp), %rax
	movq	%rdx, %xmm1
	movq	%rax, %xmm0
	call	emb_vector_subtract@PLT
	movq	%xmm0, %rax
	movq	%rax, -12(%rbp)
	movb	$0, -49(%rbp)
	movl	-48(%rbp), %eax
	andl	$2, %eax
	testl	%eax, %eax
	je	.L471
	movzbl	-49(%rbp), %eax
	orl	$1, %eax
	movb	%al, -49(%rbp)
.L471:
	movss	-12(%rbp), %xmm0
	pxor	%xmm1, %xmm1
	cvtss2sd	%xmm0, %xmm1
	movsd	.LC30(%rip), %xmm0
	mulsd	%xmm0, %xmm1
	pxor	%xmm0, %xmm0
	comisd	%xmm1, %xmm0
	jbe	.L472
	movzbl	-49(%rbp), %eax
	orl	$32, %eax
	movb	%al, -49(%rbp)
.L472:
	movss	-8(%rbp), %xmm0
	pxor	%xmm1, %xmm1
	cvtss2sd	%xmm0, %xmm1
	movsd	.LC30(%rip), %xmm0
	mulsd	%xmm0, %xmm1
	pxor	%xmm0, %xmm0
	comisd	%xmm1, %xmm0
	jbe	.L474
	movzbl	-49(%rbp), %eax
	orl	$64, %eax
	movb	%al, -49(%rbp)
.L474:
	movl	-48(%rbp), %eax
	andl	$4, %eax
	testl	%eax, %eax
	je	.L476
	movzbl	-49(%rbp), %eax
	orl	$14, %eax
	movb	%al, -49(%rbp)
.L476:
	movl	-48(%rbp), %eax
	andl	$16, %eax
	testl	%eax, %eax
	je	.L477
	movzbl	-49(%rbp), %eax
	orl	$16, %eax
	movb	%al, -49(%rbp)
.L477:
	movss	-12(%rbp), %xmm1
	movss	.LC18(%rip), %xmm0
	mulss	%xmm0, %xmm1
	movd	%xmm1, %eax
	movd	%eax, %xmm0
	call	emb_round@PLT
	movb	%al, -51(%rbp)
	movss	-8(%rbp), %xmm1
	movss	.LC18(%rip), %xmm0
	mulss	%xmm0, %xmm1
	movd	%xmm1, %eax
	movd	%eax, %xmm0
	call	emb_round@PLT
	movb	%al, -50(%rbp)
	movq	-80(%rbp), %rdx
	leaq	-51(%rbp), %rax
	movq	%rdx, %rcx
	movl	$3, %edx
	movl	$1, %esi
	movq	%rax, %rdi
	call	fwrite@PLT
	addl	$1, -4(%rbp)
.L470:
	movq	-72(%rbp), %rax
	movq	32(%rax), %rax
	movl	24(%rax), %eax
	cmpl	%eax, -4(%rbp)
	jl	.L478
	movl	$1, %eax
	leave
	.cfi_def_cfa 7, 8
	ret
	.cfi_endproc
.LFE49:
	.size	writeDsz, .-writeDsz
	.globl	readLine
	.type	readLine, @function
readLine:
.LFB50:
	.cfi_startproc
	pushq	%rbp
	.cfi_def_cfa_offset 16
	.cfi_offset 6, -16
	movq	%rsp, %rbp
	.cfi_def_cfa_register 6
	subq	$32, %rsp
	movq	%rdi, -24(%rbp)
	movq	%rsi, -32(%rbp)
	movl	$0, -8(%rbp)
	movl	$0, -4(%rbp)
	jmp	.L483
.L490:
	movq	-24(%rbp), %rax
	movq	%rax, %rdi
	call	feof@PLT
	testl	%eax, %eax
	je	.L484
	movl	-4(%rbp), %eax
	movslq	%eax, %rdx
	movq	-32(%rbp), %rax
	addq	%rdx, %rax
	movb	$0, (%rax)
	jmp	.L485
.L484:
	movq	-24(%rbp), %rax
	movq	%rax, %rdi
	call	fgetc@PLT
	movl	%eax, %ecx
	movl	-4(%rbp), %eax
	movslq	%eax, %rdx
	movq	-32(%rbp), %rax
	addq	%rdx, %rax
	movl	%ecx, %edx
	movb	%dl, (%rax)
	movl	-4(%rbp), %eax
	movslq	%eax, %rdx
	movq	-32(%rbp), %rax
	addq	%rdx, %rax
	movzbl	(%rax), %eax
	cmpb	$10, %al
	je	.L486
	movl	-4(%rbp), %eax
	movslq	%eax, %rdx
	movq	-32(%rbp), %rax
	addq	%rdx, %rax
	movzbl	(%rax), %eax
	cmpb	$13, %al
	jne	.L487
.L486:
	movl	-4(%rbp), %eax
	movslq	%eax, %rdx
	movq	-32(%rbp), %rax
	addq	%rdx, %rax
	movb	$0, (%rax)
	jmp	.L485
.L487:
	movl	-4(%rbp), %eax
	movslq	%eax, %rdx
	movq	-32(%rbp), %rax
	addq	%rdx, %rax
	movzbl	(%rax), %eax
	cmpb	$32, %al
	jne	.L488
	cmpl	$0, -8(%rbp)
	jne	.L489
	subl	$1, -4(%rbp)
	jmp	.L489
.L488:
	movl	$0, -8(%rbp)
.L489:
	addl	$1, -4(%rbp)
.L483:
	cmpl	$253, -4(%rbp)
	jle	.L490
	nop
.L485:
	nop
	leave
	.cfi_def_cfa 7, 8
	ret
	.cfi_endproc
.LFE50:
	.size	readLine, .-readLine
	.section	.rodata
.LC105:
	.string	"pattern: %p\n"
.LC106:
	.string	"bulge: %f\n"
.LC107:
	.string	"%c\n"
.LC108:
	.string	"%f %f %f\n"
.LC109:
	.string	"HEADER"
.LC110:
	.string	"CLASSES"
.LC111:
	.string	"TABLES"
.LC112:
	.string	"BLOCKS"
.LC113:
	.string	"ENTITIES"
.LC114:
	.string	"OBJECTS"
.LC115:
	.string	"THUMBNAILIMAGE"
.LC116:
	.string	"SECTION:%s\n"
.LC117:
	.string	"ENDSEC"
.LC118:
	.string	"ENDSEC:%s\n"
.LC119:
	.string	"ARC"
.LC120:
	.string	"CIRCLE"
.LC121:
	.string	"ELLIPSE"
.LC122:
	.string	"LINE"
.LC123:
	.string	"LWPOLYLINE"
.LC124:
	.string	"POINT"
.LC125:
	.string	"EOF"
.LC126:
	.string	"$ACADVER"
.LC127:
	.string	"AC1006"
.LC128:
	.string	"AC1009"
.LC129:
	.string	"AC1012"
.LC130:
	.string	"ENDTAB"
.LC131:
	.string	"2"
.LC132:
	.string	"LAYER"
.LC133:
	.string	"5"
.LC134:
	.string	"330"
.LC135:
	.string	"100"
.LC136:
	.string	"70"
.LC137:
	.string	"62"
.LC138:
	.string	"inserting:%s,%d,%d,%d\n"
.LC139:
	.string	"8"
.LC140:
	.string	"90"
.LC141:
	.string	"40"
.LC142:
	.string	"41"
.LC143:
	.string	"43"
.LC144:
	.string	"42"
.LC145:
	.string	"bulgeFlag %d\n"
.LC146:
	.string	"10"
.LC147:
	.string	"20"
.LC148:
	.string	"0"
	.align 8
.LC149:
	.string	"ERROR: format-dxf.c readDxf(), missing EOF at end of DXF file"
	.text
	.globl	readDxf
	.type	readDxf, @function
readDxf:
.LFB51:
	.cfi_startproc
	pushq	%rbp
	.cfi_def_cfa_offset 16
	.cfi_offset 6, -16
	movq	%rsp, %rbp
	.cfi_def_cfa_register 6
	subq	$1312, %rsp
	movq	%rdi, -1304(%rbp)
	movq	%rsi, -1312(%rbp)
	movl	emb_verbose(%rip), %eax
	cmpl	$1, %eax
	jle	.L492
	movq	-1304(%rbp), %rax
	movq	%rax, %rsi
	leaq	.LC105(%rip), %rax
	movq	%rax, %rdi
	movl	$0, %eax
	call	printf@PLT
.L492:
	movl	$0, -4(%rbp)
	pxor	%xmm0, %xmm0
	movss	%xmm0, -8(%rbp)
	movl	emb_verbose(%rip), %eax
	cmpl	$1, %eax
	jle	.L493
	pxor	%xmm3, %xmm3
	cvtss2sd	-8(%rbp), %xmm3
	movq	%xmm3, %rax
	movq	%rax, %xmm0
	leaq	.LC106(%rip), %rax
	movq	%rax, %rdi
	movl	$1, %eax
	call	printf@PLT
.L493:
	movb	$1, -9(%rbp)
	movsbl	-9(%rbp), %eax
	movl	%eax, %esi
	leaq	.LC107(%rip), %rax
	movq	%rax, %rdi
	movl	$0, %eax
	call	printf@PLT
	movb	$0, -10(%rbp)
	movl	$0, -16(%rbp)
	pxor	%xmm0, %xmm0
	movss	%xmm0, -1288(%rbp)
	pxor	%xmm0, %xmm0
	movss	%xmm0, -1284(%rbp)
	pxor	%xmm0, %xmm0
	movss	%xmm0, -1280(%rbp)
	pxor	%xmm0, %xmm0
	movss	%xmm0, -1276(%rbp)
	pxor	%xmm0, %xmm0
	movss	%xmm0, -1272(%rbp)
	pxor	%xmm0, %xmm0
	movss	%xmm0, -1268(%rbp)
	movss	-1288(%rbp), %xmm0
	pxor	%xmm1, %xmm1
	cvtss2sd	%xmm0, %xmm1
	movss	-1280(%rbp), %xmm0
	cvtss2sd	%xmm0, %xmm0
	movss	-1272(%rbp), %xmm2
	pxor	%xmm4, %xmm4
	cvtss2sd	%xmm2, %xmm4
	movq	%xmm4, %rax
	movapd	%xmm1, %xmm2
	movapd	%xmm0, %xmm1
	movq	%rax, %xmm0
	leaq	.LC108(%rip), %rax
	movq	%rax, %rdi
	movl	$3, %eax
	call	printf@PLT
	movq	-1312(%rbp), %rax
	movl	$2, %edx
	movl	$0, %esi
	movq	%rax, %rdi
	call	fseek@PLT
	movq	-1312(%rbp), %rax
	movq	%rax, %rdi
	call	ftell@PLT
	movl	%eax, -16(%rbp)
	movq	-1312(%rbp), %rax
	movl	$0, %edx
	movl	$0, %esi
	movq	%rax, %rdi
	call	fseek@PLT
	jmp	.L494
.L523:
	leaq	-1264(%rbp), %rdx
	movq	-1312(%rbp), %rax
	movq	%rdx, %rsi
	movq	%rax, %rdi
	call	readLine
	leaq	-1264(%rbp), %rax
	leaq	.LC109(%rip), %rdx
	movq	%rdx, %rsi
	movq	%rax, %rdi
	call	strcmp@PLT
	testl	%eax, %eax
	je	.L495
	leaq	-1264(%rbp), %rax
	leaq	.LC110(%rip), %rdx
	movq	%rdx, %rsi
	movq	%rax, %rdi
	call	strcmp@PLT
	testl	%eax, %eax
	je	.L495
	leaq	-1264(%rbp), %rax
	leaq	.LC111(%rip), %rdx
	movq	%rdx, %rsi
	movq	%rax, %rdi
	call	strcmp@PLT
	testl	%eax, %eax
	je	.L495
	leaq	-1264(%rbp), %rax
	leaq	.LC112(%rip), %rdx
	movq	%rdx, %rsi
	movq	%rax, %rdi
	call	strcmp@PLT
	testl	%eax, %eax
	je	.L495
	leaq	-1264(%rbp), %rax
	leaq	.LC113(%rip), %rdx
	movq	%rdx, %rsi
	movq	%rax, %rdi
	call	strcmp@PLT
	testl	%eax, %eax
	je	.L495
	leaq	-1264(%rbp), %rax
	leaq	.LC114(%rip), %rdx
	movq	%rdx, %rsi
	movq	%rax, %rdi
	call	strcmp@PLT
	testl	%eax, %eax
	je	.L495
	leaq	-1264(%rbp), %rax
	leaq	.LC115(%rip), %rdx
	movq	%rdx, %rsi
	movq	%rax, %rdi
	call	strcmp@PLT
	testl	%eax, %eax
	jne	.L496
.L495:
	leaq	-1264(%rbp), %rdx
	leaq	-432(%rbp), %rax
	movq	%rdx, %rsi
	movq	%rax, %rdi
	call	strcpy@PLT
	leaq	-1264(%rbp), %rax
	movq	%rax, %rsi
	leaq	.LC116(%rip), %rax
	movq	%rax, %rdi
	movl	$0, %eax
	call	printf@PLT
.L496:
	leaq	-1264(%rbp), %rax
	leaq	.LC117(%rip), %rdx
	movq	%rdx, %rsi
	movq	%rax, %rdi
	call	strcmp@PLT
	testl	%eax, %eax
	jne	.L497
	movb	$0, -432(%rbp)
	leaq	-1264(%rbp), %rax
	movq	%rax, %rsi
	leaq	.LC118(%rip), %rax
	movq	%rax, %rdi
	movl	$0, %eax
	call	printf@PLT
.L497:
	leaq	-1264(%rbp), %rax
	leaq	.LC119(%rip), %rdx
	movq	%rdx, %rsi
	movq	%rax, %rdi
	call	strcmp@PLT
	testl	%eax, %eax
	je	.L498
	leaq	-1264(%rbp), %rax
	leaq	.LC120(%rip), %rdx
	movq	%rdx, %rsi
	movq	%rax, %rdi
	call	strcmp@PLT
	testl	%eax, %eax
	je	.L498
	leaq	-1264(%rbp), %rax
	leaq	.LC121(%rip), %rdx
	movq	%rdx, %rsi
	movq	%rax, %rdi
	call	strcmp@PLT
	testl	%eax, %eax
	je	.L498
	leaq	-1264(%rbp), %rax
	leaq	.LC122(%rip), %rdx
	movq	%rdx, %rsi
	movq	%rax, %rdi
	call	strcmp@PLT
	testl	%eax, %eax
	je	.L498
	leaq	-1264(%rbp), %rax
	leaq	.LC123(%rip), %rdx
	movq	%rdx, %rsi
	movq	%rax, %rdi
	call	strcmp@PLT
	testl	%eax, %eax
	je	.L498
	leaq	-1264(%rbp), %rax
	leaq	.LC124(%rip), %rdx
	movq	%rdx, %rsi
	movq	%rax, %rdi
	call	strcmp@PLT
	testl	%eax, %eax
	jne	.L499
.L498:
	leaq	-1264(%rbp), %rdx
	leaq	-1056(%rbp), %rax
	movq	%rdx, %rsi
	movq	%rax, %rdi
	call	strcpy@PLT
.L499:
	leaq	-1264(%rbp), %rax
	leaq	.LC125(%rip), %rdx
	movq	%rdx, %rsi
	movq	%rax, %rdi
	call	strcmp@PLT
	testl	%eax, %eax
	jne	.L500
	movl	$1, -4(%rbp)
.L500:
	leaq	-432(%rbp), %rax
	leaq	.LC109(%rip), %rdx
	movq	%rdx, %rsi
	movq	%rax, %rdi
	call	strcmp@PLT
	testl	%eax, %eax
	jne	.L501
	leaq	-1264(%rbp), %rax
	leaq	.LC126(%rip), %rdx
	movq	%rdx, %rsi
	movq	%rax, %rdi
	call	strcmp@PLT
	testl	%eax, %eax
	jne	.L494
	leaq	-1264(%rbp), %rdx
	movq	-1312(%rbp), %rax
	movq	%rdx, %rsi
	movq	%rax, %rdi
	call	readLine
	leaq	-224(%rbp), %rdx
	movq	-1312(%rbp), %rax
	movq	%rdx, %rsi
	movq	%rax, %rdi
	call	readLine
	leaq	-224(%rbp), %rax
	leaq	.LC127(%rip), %rdx
	movq	%rdx, %rsi
	movq	%rax, %rdi
	call	strcmp@PLT
	testl	%eax, %eax
	je	.L502
	leaq	-224(%rbp), %rax
	leaq	.LC128(%rip), %rdx
	movq	%rdx, %rsi
	movq	%rax, %rdi
	call	strcmp@PLT
	testl	%eax, %eax
	je	.L502
	leaq	-224(%rbp), %rax
	leaq	.LC128(%rip), %rdx
	movq	%rdx, %rsi
	movq	%rax, %rdi
	call	strcmp@PLT
	testl	%eax, %eax
	je	.L502
	leaq	-224(%rbp), %rax
	leaq	.LC129(%rip), %rdx
	movq	%rdx, %rsi
	movq	%rax, %rdi
	call	strcmp@PLT
	testl	%eax, %eax
	jne	.L494
.L502:
	movl	$0, %eax
	jmp	.L525
.L501:
	leaq	-432(%rbp), %rax
	leaq	.LC111(%rip), %rdx
	movq	%rdx, %rsi
	movq	%rax, %rdi
	call	strcmp@PLT
	testl	%eax, %eax
	jne	.L504
	leaq	-1264(%rbp), %rax
	leaq	.LC130(%rip), %rdx
	movq	%rdx, %rsi
	movq	%rax, %rdi
	call	strcmp@PLT
	testl	%eax, %eax
	jne	.L505
	movb	$0, -640(%rbp)
.L505:
	movzbl	-640(%rbp), %eax
	testb	%al, %al
	jne	.L506
	leaq	-1264(%rbp), %rax
	leaq	.LC131(%rip), %rdx
	movq	%rdx, %rsi
	movq	%rax, %rdi
	call	strcmp@PLT
	testl	%eax, %eax
	jne	.L494
	leaq	-640(%rbp), %rdx
	movq	-1312(%rbp), %rax
	movq	%rdx, %rsi
	movq	%rax, %rdi
	call	readLine
	jmp	.L494
.L506:
	leaq	-640(%rbp), %rax
	leaq	.LC132(%rip), %rdx
	movq	%rdx, %rsi
	movq	%rax, %rdi
	call	strcmp@PLT
	testl	%eax, %eax
	jne	.L494
	leaq	-1264(%rbp), %rax
	leaq	.LC133(%rip), %rdx
	movq	%rdx, %rsi
	movq	%rax, %rdi
	call	strcmp@PLT
	testl	%eax, %eax
	jne	.L507
	leaq	-1264(%rbp), %rdx
	movq	-1312(%rbp), %rax
	movq	%rdx, %rsi
	movq	%rax, %rdi
	call	readLine
	jmp	.L494
.L507:
	leaq	-1264(%rbp), %rax
	leaq	.LC134(%rip), %rdx
	movq	%rdx, %rsi
	movq	%rax, %rdi
	call	strcmp@PLT
	testl	%eax, %eax
	jne	.L508
	leaq	-1264(%rbp), %rdx
	movq	-1312(%rbp), %rax
	movq	%rdx, %rsi
	movq	%rax, %rdi
	call	readLine
	jmp	.L494
.L508:
	leaq	-1264(%rbp), %rax
	leaq	.LC135(%rip), %rdx
	movq	%rdx, %rsi
	movq	%rax, %rdi
	call	strcmp@PLT
	testl	%eax, %eax
	jne	.L509
	leaq	-1264(%rbp), %rdx
	movq	-1312(%rbp), %rax
	movq	%rdx, %rsi
	movq	%rax, %rdi
	call	readLine
	jmp	.L494
.L509:
	leaq	-1264(%rbp), %rax
	leaq	.LC136(%rip), %rdx
	movq	%rdx, %rsi
	movq	%rax, %rdi
	call	strcmp@PLT
	testl	%eax, %eax
	jne	.L510
	leaq	-1264(%rbp), %rdx
	movq	-1312(%rbp), %rax
	movq	%rdx, %rsi
	movq	%rax, %rdi
	call	readLine
	jmp	.L494
.L510:
	leaq	-1264(%rbp), %rax
	leaq	.LC131(%rip), %rdx
	movq	%rdx, %rsi
	movq	%rax, %rdi
	call	strcmp@PLT
	testl	%eax, %eax
	jne	.L511
	leaq	-848(%rbp), %rdx
	movq	-1312(%rbp), %rax
	movq	%rdx, %rsi
	movq	%rax, %rdi
	call	readLine
	jmp	.L494
.L511:
	leaq	-1264(%rbp), %rax
	leaq	.LC137(%rip), %rdx
	movq	%rdx, %rsi
	movq	%rax, %rdi
	call	strcmp@PLT
	testl	%eax, %eax
	jne	.L494
	leaq	-1264(%rbp), %rdx
	movq	-1312(%rbp), %rax
	movq	%rdx, %rsi
	movq	%rax, %rdi
	call	readLine
	leaq	-1264(%rbp), %rax
	movq	%rax, %rdi
	call	atoi@PLT
	movb	%al, -17(%rbp)
	leaq	-1264(%rbp), %rax
	movq	%rax, %rdi
	call	atoi@PLT
	movb	%al, -17(%rbp)
	movzbl	-17(%rbp), %eax
	cltq
	imulq	$403, %rax, %rax
	leaq	dxf_colors(%rip), %rdx
	movzwl	(%rax,%rdx), %ecx
	movw	%cx, -1291(%rbp)
	movzbl	2(%rax,%rdx), %eax
	movb	%al, -1289(%rbp)
	movzbl	-1289(%rbp), %eax
	movzbl	%al, %esi
	movzbl	-1290(%rbp), %eax
	movzbl	%al, %ecx
	movzbl	-1291(%rbp), %eax
	movzbl	%al, %edx
	leaq	-848(%rbp), %rax
	movl	%esi, %r8d
	movq	%rax, %rsi
	leaq	.LC138(%rip), %rax
	movq	%rax, %rdi
	movl	$0, %eax
	call	printf@PLT
	movb	$0, -848(%rbp)
	jmp	.L494
.L504:
	leaq	-432(%rbp), %rax
	leaq	.LC113(%rip), %rdx
	movq	%rdx, %rsi
	movq	%rax, %rdi
	call	strcmp@PLT
	testl	%eax, %eax
	jne	.L494
	leaq	-1264(%rbp), %rax
	leaq	.LC133(%rip), %rdx
	movq	%rdx, %rsi
	movq	%rax, %rdi
	call	strcmp@PLT
	testl	%eax, %eax
	jne	.L512
	leaq	-1264(%rbp), %rdx
	movq	-1312(%rbp), %rax
	movq	%rdx, %rsi
	movq	%rax, %rdi
	call	readLine
	jmp	.L494
.L512:
	leaq	-1264(%rbp), %rax
	leaq	.LC134(%rip), %rdx
	movq	%rdx, %rsi
	movq	%rax, %rdi
	call	strcmp@PLT
	testl	%eax, %eax
	jne	.L513
	leaq	-1264(%rbp), %rdx
	movq	-1312(%rbp), %rax
	movq	%rdx, %rsi
	movq	%rax, %rdi
	call	readLine
	jmp	.L494
.L513:
	leaq	-1264(%rbp), %rax
	leaq	.LC135(%rip), %rdx
	movq	%rdx, %rsi
	movq	%rax, %rdi
	call	strcmp@PLT
	testl	%eax, %eax
	jne	.L514
	leaq	-1264(%rbp), %rdx
	movq	-1312(%rbp), %rax
	movq	%rdx, %rsi
	movq	%rax, %rdi
	call	readLine
	jmp	.L494
.L514:
	leaq	-1264(%rbp), %rax
	leaq	.LC139(%rip), %rdx
	movq	%rdx, %rsi
	movq	%rax, %rdi
	call	strcmp@PLT
	testl	%eax, %eax
	jne	.L515
	leaq	-1264(%rbp), %rdx
	movq	-1312(%rbp), %rax
	movq	%rdx, %rsi
	movq	%rax, %rdi
	call	readLine
	jmp	.L494
.L515:
	leaq	-1056(%rbp), %rax
	leaq	.LC123(%rip), %rdx
	movq	%rdx, %rsi
	movq	%rax, %rdi
	call	strcmp@PLT
	testl	%eax, %eax
	jne	.L494
	leaq	-1264(%rbp), %rax
	leaq	.LC140(%rip), %rdx
	movq	%rdx, %rsi
	movq	%rax, %rdi
	call	strcmp@PLT
	testl	%eax, %eax
	jne	.L516
	leaq	-1264(%rbp), %rdx
	movq	-1312(%rbp), %rax
	movq	%rdx, %rsi
	movq	%rax, %rdi
	call	readLine
	jmp	.L494
.L516:
	leaq	-1264(%rbp), %rax
	leaq	.LC136(%rip), %rdx
	movq	%rdx, %rsi
	movq	%rax, %rdi
	call	strcmp@PLT
	testl	%eax, %eax
	jne	.L517
	leaq	-1264(%rbp), %rdx
	movq	-1312(%rbp), %rax
	movq	%rdx, %rsi
	movq	%rax, %rdi
	call	readLine
	jmp	.L494
.L517:
	leaq	-1264(%rbp), %rax
	leaq	.LC141(%rip), %rdx
	movq	%rdx, %rsi
	movq	%rax, %rdi
	call	strcmp@PLT
	testl	%eax, %eax
	jne	.L518
	leaq	-1264(%rbp), %rdx
	movq	-1312(%rbp), %rax
	movq	%rdx, %rsi
	movq	%rax, %rdi
	call	readLine
	jmp	.L494
.L518:
	leaq	-1264(%rbp), %rax
	leaq	.LC142(%rip), %rdx
	movq	%rdx, %rsi
	movq	%rax, %rdi
	call	strcmp@PLT
	testl	%eax, %eax
	jne	.L519
	leaq	-1264(%rbp), %rdx
	movq	-1312(%rbp), %rax
	movq	%rdx, %rsi
	movq	%rax, %rdi
	call	readLine
	jmp	.L494
.L519:
	leaq	-1264(%rbp), %rax
	leaq	.LC143(%rip), %rdx
	movq	%rdx, %rsi
	movq	%rax, %rdi
	call	strcmp@PLT
	testl	%eax, %eax
	jne	.L520
	leaq	-1264(%rbp), %rdx
	movq	-1312(%rbp), %rax
	movq	%rdx, %rsi
	movq	%rax, %rdi
	call	readLine
	jmp	.L494
.L520:
	leaq	-1264(%rbp), %rax
	leaq	.LC144(%rip), %rdx
	movq	%rdx, %rsi
	movq	%rax, %rdi
	call	strcmp@PLT
	testl	%eax, %eax
	jne	.L521
	leaq	-1264(%rbp), %rdx
	movq	-1312(%rbp), %rax
	movq	%rdx, %rsi
	movq	%rax, %rdi
	call	readLine
	leaq	-1264(%rbp), %rax
	movq	%rax, %rdi
	call	atof@PLT
	cvtsd2ss	%xmm0, %xmm0
	movss	%xmm0, -8(%rbp)
	movb	$1, -10(%rbp)
	movsbl	-10(%rbp), %eax
	movl	%eax, %esi
	leaq	.LC145(%rip), %rax
	movq	%rax, %rdi
	movl	$0, %eax
	call	printf@PLT
	jmp	.L494
.L521:
	leaq	-1264(%rbp), %rax
	leaq	.LC146(%rip), %rdx
	movq	%rdx, %rsi
	movq	%rax, %rdi
	call	strcmp@PLT
	testl	%eax, %eax
	jne	.L522
	leaq	-1264(%rbp), %rdx
	movq	-1312(%rbp), %rax
	movq	%rdx, %rsi
	movq	%rax, %rdi
	call	readLine
	leaq	-1264(%rbp), %rax
	movq	%rax, %rdi
	call	atof@PLT
	cvtsd2ss	%xmm0, %xmm0
	movss	%xmm0, -1280(%rbp)
	jmp	.L494
.L522:
	leaq	-1264(%rbp), %rax
	leaq	.LC147(%rip), %rdx
	movq	%rdx, %rsi
	movq	%rax, %rdi
	call	strcmp@PLT
	testl	%eax, %eax
	je	.L494
	leaq	-1264(%rbp), %rax
	leaq	.LC148(%rip), %rdx
	movq	%rdx, %rsi
	movq	%rax, %rdi
	call	strcmp@PLT
.L494:
	movq	-1312(%rbp), %rax
	movq	%rax, %rdi
	call	ftell@PLT
	movq	%rax, %rdx
	movl	-16(%rbp), %eax
	cltq
	cmpq	%rax, %rdx
	jl	.L523
	cmpl	$0, -4(%rbp)
	jne	.L524
	leaq	.LC149(%rip), %rax
	movq	%rax, %rdi
	call	puts@PLT
.L524:
	movl	-4(%rbp), %eax
.L525:
	leave
	.cfi_def_cfa 7, 8
	ret
	.cfi_endproc
.LFE51:
	.size	readDxf, .-readDxf
	.section	.rodata
	.align 8
.LC150:
	.string	"ERROR: writeDxf not implemented."
.LC151:
	.string	"Called with %p %p\n"
	.text
	.globl	writeDxf
	.type	writeDxf, @function
writeDxf:
.LFB52:
	.cfi_startproc
	pushq	%rbp
	.cfi_def_cfa_offset 16
	.cfi_offset 6, -16
	movq	%rsp, %rbp
	.cfi_def_cfa_register 6
	subq	$16, %rsp
	movq	%rdi, -8(%rbp)
	movq	%rsi, -16(%rbp)
	leaq	.LC150(%rip), %rax
	movq	%rax, %rdi
	call	puts@PLT
	movl	emb_verbose(%rip), %eax
	cmpl	$1, %eax
	jle	.L527
	movq	-16(%rbp), %rdx
	movq	-8(%rbp), %rax
	movq	%rax, %rsi
	leaq	.LC151(%rip), %rax
	movq	%rax, %rdi
	movl	$0, %eax
	call	printf@PLT
.L527:
	movl	$0, %eax
	leave
	.cfi_def_cfa 7, 8
	ret
	.cfi_endproc
.LFE52:
	.size	writeDxf, .-writeDxf
	.globl	readEdr
	.type	readEdr, @function
readEdr:
.LFB53:
	.cfi_startproc
	pushq	%rbp
	.cfi_def_cfa_offset 16
	.cfi_offset 6, -16
	movq	%rsp, %rbp
	.cfi_def_cfa_register 6
	subq	$16, %rsp
	movq	%rdi, -8(%rbp)
	movq	%rsi, -16(%rbp)
	movq	-16(%rbp), %rdx
	movq	-8(%rbp), %rax
	movq	%rdx, %rsi
	movq	%rax, %rdi
	call	readRgb
	leave
	.cfi_def_cfa 7, 8
	ret
	.cfi_endproc
.LFE53:
	.size	readEdr, .-readEdr
	.globl	writeEdr
	.type	writeEdr, @function
writeEdr:
.LFB54:
	.cfi_startproc
	pushq	%rbp
	.cfi_def_cfa_offset 16
	.cfi_offset 6, -16
	movq	%rsp, %rbp
	.cfi_def_cfa_register 6
	subq	$16, %rsp
	movq	%rdi, -8(%rbp)
	movq	%rsi, -16(%rbp)
	movq	-16(%rbp), %rdx
	movq	-8(%rbp), %rax
	movq	%rdx, %rsi
	movq	%rax, %rdi
	call	writeRgb
	leave
	.cfi_def_cfa 7, 8
	ret
	.cfi_endproc
.LFE54:
	.size	writeEdr, .-writeEdr
	.globl	emdDecode
	.type	emdDecode, @function
emdDecode:
.LFB55:
	.cfi_startproc
	pushq	%rbp
	.cfi_def_cfa_offset 16
	.cfi_offset 6, -16
	movq	%rsp, %rbp
	.cfi_def_cfa_register 6
	movl	%edi, %eax
	movb	%al, -4(%rbp)
	movzbl	-4(%rbp), %eax
	testb	%al, %al
	jns	.L534
	movzbl	-4(%rbp), %eax
	jmp	.L535
.L534:
	movzbl	-4(%rbp), %eax
.L535:
	popq	%rbp
	.cfi_def_cfa 7, 8
	ret
	.cfi_endproc
.LFE55:
	.size	emdDecode, .-emdDecode
	.section	.rodata
	.align 8
.LC152:
	.string	"File invalid: shorter than the header."
	.align 8
.LC153:
	.string	"ERROR: Failed to read 6 bytes for jemd0"
.LC154:
	.string	"%d %d %d\n"
	.align 8
.LC155:
	.string	"ERROR: Failed to read 2 bytes for stitch."
	.text
	.globl	readEmd
	.type	readEmd, @function
readEmd:
.LFB56:
	.cfi_startproc
	pushq	%rbp
	.cfi_def_cfa_offset 16
	.cfi_offset 6, -16
	movq	%rsp, %rbp
	.cfi_def_cfa_register 6
	subq	$48, %rsp
	movq	%rdi, -40(%rbp)
	movq	%rsi, -48(%rbp)
	movq	-48(%rbp), %rax
	movl	$2, %edx
	movl	$0, %esi
	movq	%rax, %rdi
	call	fseek@PLT
	movq	-48(%rbp), %rax
	movq	%rax, %rdi
	call	ftell@PLT
	movl	%eax, -8(%rbp)
	cmpl	$47, -8(%rbp)
	jg	.L537
	leaq	.LC152(%rip), %rax
	movq	%rax, %rdi
	call	puts@PLT
	movl	$0, %eax
	jmp	.L549
.L537:
	movq	-48(%rbp), %rax
	movl	$0, %edx
	movl	$0, %esi
	movq	%rax, %rdi
	call	fseek@PLT
	movq	-48(%rbp), %rdx
	leaq	-30(%rbp), %rax
	movq	%rdx, %rcx
	movl	$6, %edx
	movl	$1, %esi
	movq	%rax, %rdi
	call	fread@PLT
	cmpq	$6, %rax
	je	.L539
	leaq	.LC153(%rip), %rax
	movq	%rax, %rdi
	call	puts@PLT
	movl	$0, %eax
	jmp	.L549
.L539:
	movq	-48(%rbp), %rax
	movq	%rax, %rdi
	call	emb_read_i16@PLT
	cwtl
	movl	%eax, -12(%rbp)
	movq	-48(%rbp), %rax
	movq	%rax, %rdi
	call	emb_read_i16@PLT
	cwtl
	movl	%eax, -16(%rbp)
	movq	-48(%rbp), %rax
	movq	%rax, %rdi
	call	emb_read_i16@PLT
	cwtl
	movl	%eax, -20(%rbp)
	movl	-20(%rbp), %ecx
	movl	-16(%rbp), %edx
	movl	-12(%rbp), %eax
	movl	%eax, %esi
	leaq	.LC154(%rip), %rax
	movq	%rax, %rdi
	movl	$0, %eax
	call	printf@PLT
	movq	-48(%rbp), %rax
	movl	$0, %edx
	movl	$48, %esi
	movq	%rax, %rdi
	call	fseek@PLT
	jmp	.L540
.L548:
	movl	$0, -4(%rbp)
	movq	-48(%rbp), %rdx
	leaq	-24(%rbp), %rax
	movq	%rdx, %rcx
	movl	$2, %edx
	movl	$1, %esi
	movq	%rax, %rdi
	call	fread@PLT
	cmpq	$2, %rax
	je	.L541
	leaq	.LC155(%rip), %rax
	movq	%rax, %rdi
	call	puts@PLT
	movl	$0, %eax
	jmp	.L549
.L541:
	movzbl	-24(%rbp), %eax
	cmpb	$-128, %al
	jne	.L542
	movzbl	-23(%rbp), %eax
	cmpb	$42, %al
	jne	.L543
	movq	-40(%rbp), %rax
	movl	$1, %edx
	movl	$4, %esi
	pxor	%xmm1, %xmm1
	movl	.LC17(%rip), %ecx
	movd	%ecx, %xmm0
	movq	%rax, %rdi
	call	emb_pattern_addStitchRel@PLT
	jmp	.L540
.L543:
	movzbl	-23(%rbp), %eax
	cmpb	$-128, %al
	jne	.L544
	movq	-48(%rbp), %rdx
	leaq	-24(%rbp), %rax
	movq	%rdx, %rcx
	movl	$2, %edx
	movl	$1, %esi
	movq	%rax, %rdi
	call	fread@PLT
	cmpq	$2, %rax
	je	.L545
	leaq	.LC155(%rip), %rax
	movq	%rax, %rdi
	call	puts@PLT
	movl	$0, %eax
	jmp	.L549
.L545:
	movl	$2, -4(%rbp)
	jmp	.L542
.L544:
	movzbl	-23(%rbp), %eax
	cmpb	$-3, %al
	jne	.L540
	movq	-40(%rbp), %rax
	movl	$1, %edx
	movl	$16, %esi
	pxor	%xmm1, %xmm1
	movl	.LC17(%rip), %ecx
	movd	%ecx, %xmm0
	movq	%rax, %rdi
	call	emb_pattern_addStitchRel@PLT
	jmp	.L547
.L542:
	movzbl	-24(%rbp), %eax
	movzbl	%al, %eax
	movl	%eax, %edi
	call	emdDecode
	movb	%al, -21(%rbp)
	movzbl	-23(%rbp), %eax
	movzbl	%al, %eax
	movl	%eax, %edi
	call	emdDecode
	movb	%al, -22(%rbp)
	movsbl	-22(%rbp), %eax
	pxor	%xmm0, %xmm0
	cvtsi2ssl	%eax, %xmm0
	movss	.LC18(%rip), %xmm1
	movaps	%xmm0, %xmm2
	divss	%xmm1, %xmm2
	movsbl	-21(%rbp), %eax
	pxor	%xmm0, %xmm0
	cvtsi2ssl	%eax, %xmm0
	movss	.LC18(%rip), %xmm1
	divss	%xmm1, %xmm0
	movd	%xmm0, %ecx
	movl	-4(%rbp), %esi
	movq	-40(%rbp), %rax
	movl	$1, %edx
	movaps	%xmm2, %xmm1
	movd	%ecx, %xmm0
	movq	%rax, %rdi
	call	emb_pattern_addStitchRel@PLT
.L540:
	movq	-48(%rbp), %rax
	movq	%rax, %rdi
	call	feof@PLT
	testl	%eax, %eax
	je	.L548
.L547:
	movl	$1, %eax
.L549:
	leave
	.cfi_def_cfa 7, 8
	ret
	.cfi_endproc
.LFE56:
	.size	readEmd, .-readEmd
	.section	.rodata
.LC156:
	.string	"writeEmd not implemented."
	.text
	.globl	writeEmd
	.type	writeEmd, @function
writeEmd:
.LFB57:
	.cfi_startproc
	pushq	%rbp
	.cfi_def_cfa_offset 16
	.cfi_offset 6, -16
	movq	%rsp, %rbp
	.cfi_def_cfa_register 6
	subq	$16, %rsp
	movq	%rdi, -8(%rbp)
	movq	%rsi, -16(%rbp)
	leaq	.LC156(%rip), %rax
	movq	%rax, %rdi
	call	puts@PLT
	movl	emb_verbose(%rip), %eax
	cmpl	$1, %eax
	jle	.L551
	movq	-16(%rbp), %rdx
	movq	-8(%rbp), %rax
	movq	%rax, %rsi
	leaq	.LC151(%rip), %rax
	movq	%rax, %rdi
	movl	$0, %eax
	call	printf@PLT
.L551:
	movl	$0, %eax
	leave
	.cfi_def_cfa 7, 8
	ret
	.cfi_endproc
.LFE57:
	.size	writeEmd, .-writeEmd
	.globl	expDecode
	.type	expDecode, @function
expDecode:
.LFB58:
	.cfi_startproc
	pushq	%rbp
	.cfi_def_cfa_offset 16
	.cfi_offset 6, -16
	movq	%rsp, %rbp
	.cfi_def_cfa_register 6
	movl	%edi, %eax
	movb	%al, -4(%rbp)
	movzbl	-4(%rbp), %eax
	popq	%rbp
	.cfi_def_cfa 7, 8
	ret
	.cfi_endproc
.LFE58:
	.size	expDecode, .-expDecode
	.globl	readExp
	.type	readExp, @function
readExp:
.LFB59:
	.cfi_startproc
	pushq	%rbp
	.cfi_def_cfa_offset 16
	.cfi_offset 6, -16
	movq	%rsp, %rbp
	.cfi_def_cfa_register 6
	subq	$32, %rsp
	movq	%rdi, -24(%rbp)
	movq	%rsi, -32(%rbp)
	jmp	.L556
.L564:
	movb	$0, -5(%rbp)
	movb	$0, -6(%rbp)
	movl	$0, -4(%rbp)
	movzbl	-8(%rbp), %eax
	cmpb	$-128, %al
	jne	.L557
	movzbl	-7(%rbp), %eax
	cmpb	$1, %al
	jne	.L558
	movq	-32(%rbp), %rdx
	leaq	-8(%rbp), %rax
	movq	%rdx, %rcx
	movl	$2, %edx
	movl	$1, %esi
	movq	%rax, %rdi
	call	fread@PLT
	cmpq	$2, %rax
	jne	.L566
	movl	$4, -4(%rbp)
	jmp	.L557
.L558:
	movzbl	-7(%rbp), %eax
	cmpb	$4, %al
	jne	.L561
	movq	-32(%rbp), %rdx
	leaq	-8(%rbp), %rax
	movq	%rdx, %rcx
	movl	$2, %edx
	movl	$1, %esi
	movq	%rax, %rdi
	call	fread@PLT
	cmpq	$2, %rax
	jne	.L567
	movl	$1, -4(%rbp)
	jmp	.L557
.L561:
	movzbl	-7(%rbp), %eax
	cmpb	$-128, %al
	jne	.L557
	movq	-32(%rbp), %rdx
	leaq	-8(%rbp), %rax
	movq	%rdx, %rcx
	movl	$2, %edx
	movl	$1, %esi
	movq	%rax, %rdi
	call	fread@PLT
	cmpq	$2, %rax
	jne	.L568
	movl	$2, -4(%rbp)
.L557:
	movzbl	-8(%rbp), %eax
	movzbl	%al, %eax
	movl	%eax, %edi
	call	expDecode
	movb	%al, -5(%rbp)
	movzbl	-7(%rbp), %eax
	movzbl	%al, %eax
	movl	%eax, %edi
	call	expDecode
	movb	%al, -6(%rbp)
	movsbl	-6(%rbp), %eax
	pxor	%xmm0, %xmm0
	cvtsi2sdl	%eax, %xmm0
	movsd	.LC30(%rip), %xmm1
	divsd	%xmm1, %xmm0
	pxor	%xmm2, %xmm2
	cvtsd2ss	%xmm0, %xmm2
	movsbl	-5(%rbp), %eax
	pxor	%xmm0, %xmm0
	cvtsi2sdl	%eax, %xmm0
	movsd	.LC30(%rip), %xmm1
	divsd	%xmm1, %xmm0
	pxor	%xmm3, %xmm3
	cvtsd2ss	%xmm0, %xmm3
	movd	%xmm3, %ecx
	movl	-4(%rbp), %esi
	movq	-24(%rbp), %rax
	movl	$1, %edx
	movaps	%xmm2, %xmm1
	movd	%ecx, %xmm0
	movq	%rax, %rdi
	call	emb_pattern_addStitchRel@PLT
.L556:
	movq	-32(%rbp), %rdx
	leaq	-8(%rbp), %rax
	movq	%rdx, %rcx
	movl	$2, %edx
	movl	$1, %esi
	movq	%rax, %rdi
	call	fread@PLT
	cmpq	$2, %rax
	je	.L564
	jmp	.L560
.L566:
	nop
	jmp	.L560
.L567:
	nop
	jmp	.L560
.L568:
	nop
.L560:
	movl	$1, %eax
	leave
	.cfi_def_cfa 7, 8
	ret
	.cfi_endproc
.LFE59:
	.size	readExp, .-readExp
	.globl	writeExp
	.type	writeExp, @function
writeExp:
.LFB60:
	.cfi_startproc
	pushq	%rbp
	.cfi_def_cfa_offset 16
	.cfi_offset 6, -16
	movq	%rsp, %rbp
	.cfi_def_cfa_register 6
	subq	$64, %rsp
	movq	%rdi, -56(%rbp)
	movq	%rsi, -64(%rbp)
	pxor	%xmm0, %xmm0
	movss	%xmm0, -16(%rbp)
	pxor	%xmm0, %xmm0
	movss	%xmm0, -12(%rbp)
	movl	$0, -4(%rbp)
	jmp	.L570
.L576:
	movq	-56(%rbp), %rax
	movq	32(%rax), %rax
	movq	8(%rax), %rax
	movl	-4(%rbp), %edx
	movslq	%edx, %rdx
	salq	$4, %rdx
	addq	%rdx, %rax
	movq	8(%rax), %rdx
	movq	(%rax), %rax
	movq	%rax, -48(%rbp)
	movq	%rdx, -40(%rbp)
	movss	-44(%rbp), %xmm0
	movss	-16(%rbp), %xmm2
	movaps	%xmm0, %xmm1
	subss	%xmm2, %xmm1
	movss	.LC18(%rip), %xmm0
	mulss	%xmm0, %xmm1
	movd	%xmm1, %eax
	movd	%eax, %xmm0
	call	emb_round@PLT
	movb	%al, -5(%rbp)
	movss	-40(%rbp), %xmm0
	movss	-12(%rbp), %xmm2
	movaps	%xmm0, %xmm1
	subss	%xmm2, %xmm1
	movss	.LC18(%rip), %xmm0
	mulss	%xmm0, %xmm1
	movd	%xmm1, %eax
	movd	%eax, %xmm0
	call	emb_round@PLT
	movb	%al, -6(%rbp)
	movss	-16(%rbp), %xmm0
	pxor	%xmm1, %xmm1
	cvtss2sd	%xmm0, %xmm1
	movsbl	-5(%rbp), %eax
	pxor	%xmm2, %xmm2
	cvtsi2sdl	%eax, %xmm2
	movsd	.LC20(%rip), %xmm0
	mulsd	%xmm2, %xmm0
	addsd	%xmm1, %xmm0
	cvtsd2ss	%xmm0, %xmm0
	movss	%xmm0, -16(%rbp)
	movss	-12(%rbp), %xmm0
	pxor	%xmm1, %xmm1
	cvtss2sd	%xmm0, %xmm1
	movsbl	-6(%rbp), %eax
	pxor	%xmm2, %xmm2
	cvtsi2sdl	%eax, %xmm2
	movsd	.LC20(%rip), %xmm0
	mulsd	%xmm2, %xmm0
	addsd	%xmm1, %xmm0
	cvtsd2ss	%xmm0, %xmm0
	movss	%xmm0, -12(%rbp)
	movl	-48(%rbp), %eax
	cmpl	$4, %eax
	je	.L571
	cmpl	$4, %eax
	jg	.L572
	cmpl	$1, %eax
	je	.L573
	cmpl	$2, %eax
	je	.L574
	jmp	.L572
.L571:
	movb	$-128, -20(%rbp)
	movb	$1, -19(%rbp)
	movb	$0, -18(%rbp)
	movb	$0, -17(%rbp)
	movq	-64(%rbp), %rdx
	leaq	-20(%rbp), %rax
	movq	%rdx, %rcx
	movl	$4, %edx
	movl	$1, %esi
	movq	%rax, %rdi
	call	fwrite@PLT
	jmp	.L575
.L573:
	movb	$-128, -20(%rbp)
	movb	$4, -19(%rbp)
	movzbl	-5(%rbp), %eax
	movb	%al, -18(%rbp)
	movzbl	-6(%rbp), %eax
	movb	%al, -17(%rbp)
	movq	-64(%rbp), %rdx
	leaq	-20(%rbp), %rax
	movq	%rdx, %rcx
	movl	$4, %edx
	movl	$1, %esi
	movq	%rax, %rdi
	call	fwrite@PLT
	jmp	.L575
.L574:
	movb	$-128, -20(%rbp)
	movb	$-128, -19(%rbp)
	movb	$7, -18(%rbp)
	movb	$0, -17(%rbp)
	movq	-64(%rbp), %rdx
	leaq	-20(%rbp), %rax
	movq	%rdx, %rcx
	movl	$4, %edx
	movl	$1, %esi
	movq	%rax, %rdi
	call	fwrite@PLT
	jmp	.L575
.L572:
	movzbl	-5(%rbp), %eax
	movb	%al, -20(%rbp)
	movzbl	-6(%rbp), %eax
	movb	%al, -19(%rbp)
	movq	-64(%rbp), %rdx
	leaq	-20(%rbp), %rax
	movq	%rdx, %rcx
	movl	$2, %edx
	movl	$1, %esi
	movq	%rax, %rdi
	call	fwrite@PLT
	nop
.L575:
	addl	$1, -4(%rbp)
.L570:
	movq	-56(%rbp), %rax
	movq	32(%rax), %rax
	movl	24(%rax), %eax
	cmpl	%eax, -4(%rbp)
	jl	.L576
	movq	-64(%rbp), %rax
	movq	%rax, %rsi
	movl	$26, %edi
	call	fputc@PLT
	movl	$1, %eax
	leave
	.cfi_def_cfa 7, 8
	ret
	.cfi_endproc
.LFE60:
	.size	writeExp, .-writeExp
	.globl	decode_exy_flags
	.type	decode_exy_flags, @function
decode_exy_flags:
.LFB61:
	.cfi_startproc
	pushq	%rbp
	.cfi_def_cfa_offset 16
	.cfi_offset 6, -16
	movq	%rsp, %rbp
	.cfi_def_cfa_register 6
	movl	%edi, %eax
	movb	%al, -20(%rbp)
	movl	$0, -4(%rbp)
	cmpb	$-13, -20(%rbp)
	jne	.L579
	movl	$16, %eax
	jmp	.L580
.L579:
	movzbl	-20(%rbp), %eax
	andl	$195, %eax
	cmpl	$195, %eax
	jne	.L581
	movl	$6, %eax
	jmp	.L580
.L581:
	movzbl	-20(%rbp), %eax
	testb	%al, %al
	jns	.L582
	orl	$2, -4(%rbp)
.L582:
	movzbl	-20(%rbp), %eax
	andl	$64, %eax
	testl	%eax, %eax
	je	.L583
	orl	$4, -4(%rbp)
.L583:
	movl	-4(%rbp), %eax
.L580:
	popq	%rbp
	.cfi_def_cfa 7, 8
	ret
	.cfi_endproc
.LFE61:
	.size	decode_exy_flags, .-decode_exy_flags
	.globl	readExy
	.type	readExy, @function
readExy:
.LFB62:
	.cfi_startproc
	pushq	%rbp
	.cfi_def_cfa_offset 16
	.cfi_offset 6, -16
	movq	%rsp, %rbp
	.cfi_def_cfa_register 6
	subq	$32, %rsp
	movq	%rdi, -24(%rbp)
	movq	%rsi, -32(%rbp)
	movq	-32(%rbp), %rax
	movl	$0, %edx
	movl	$256, %esi
	movq	%rax, %rdi
	call	fseek@PLT
	jmp	.L585
.L588:
	leaq	-16(%rbp), %rdx
	leaq	-12(%rbp), %rcx
	leaq	-7(%rbp), %rax
	movq	%rcx, %rsi
	movq	%rax, %rdi
	call	decode_tajima_ternary@PLT
	movzbl	-5(%rbp), %eax
	movzbl	%al, %eax
	movl	%eax, %edi
	call	decode_exy_flags
	movl	%eax, -4(%rbp)
	movl	-4(%rbp), %eax
	andl	$16, %eax
	testl	%eax, %eax
	je	.L586
	movq	-24(%rbp), %rax
	movl	$1, %edx
	movl	$16, %esi
	pxor	%xmm1, %xmm1
	movl	.LC17(%rip), %ecx
	movd	%ecx, %xmm0
	movq	%rax, %rdi
	call	emb_pattern_addStitchRel@PLT
	jmp	.L587
.L586:
	movl	-16(%rbp), %eax
	pxor	%xmm0, %xmm0
	cvtsi2sdl	%eax, %xmm0
	movsd	.LC30(%rip), %xmm1
	divsd	%xmm1, %xmm0
	pxor	%xmm2, %xmm2
	cvtsd2ss	%xmm0, %xmm2
	movl	-12(%rbp), %eax
	pxor	%xmm0, %xmm0
	cvtsi2sdl	%eax, %xmm0
	movsd	.LC30(%rip), %xmm1
	divsd	%xmm1, %xmm0
	pxor	%xmm3, %xmm3
	cvtsd2ss	%xmm0, %xmm3
	movd	%xmm3, %ecx
	movl	-4(%rbp), %esi
	movq	-24(%rbp), %rax
	movl	$1, %edx
	movaps	%xmm2, %xmm1
	movd	%ecx, %xmm0
	movq	%rax, %rdi
	call	emb_pattern_addStitchRel@PLT
.L585:
	movq	-32(%rbp), %rdx
	leaq	-7(%rbp), %rax
	movq	%rdx, %rcx
	movl	$3, %edx
	movl	$1, %esi
	movq	%rax, %rdi
	call	fread@PLT
	cmpq	$3, %rax
	je	.L588
.L587:
	movl	$1, %eax
	leave
	.cfi_def_cfa 7, 8
	ret
	.cfi_endproc
.LFE62:
	.size	readExy, .-readExy
	.section	.rodata
	.align 8
.LC157:
	.string	"ERROR: writeExy has not been finished."
.LC158:
	.string	"file: %p\n"
	.text
	.globl	writeExy
	.type	writeExy, @function
writeExy:
.LFB63:
	.cfi_startproc
	pushq	%rbp
	.cfi_def_cfa_offset 16
	.cfi_offset 6, -16
	movq	%rsp, %rbp
	.cfi_def_cfa_register 6
	subq	$16, %rsp
	movq	%rdi, -8(%rbp)
	movq	%rsi, -16(%rbp)
	leaq	.LC157(%rip), %rax
	movq	%rax, %rdi
	call	puts@PLT
	movl	emb_verbose(%rip), %eax
	cmpl	$1, %eax
	jle	.L591
	movq	-8(%rbp), %rax
	movq	%rax, %rsi
	leaq	.LC105(%rip), %rax
	movq	%rax, %rdi
	movl	$0, %eax
	call	printf@PLT
.L591:
	movl	emb_verbose(%rip), %eax
	cmpl	$1, %eax
	jle	.L592
	movq	-16(%rbp), %rax
	movq	%rax, %rsi
	leaq	.LC158(%rip), %rax
	movq	%rax, %rdi
	movl	$0, %eax
	call	printf@PLT
.L592:
	movl	$0, %eax
	leave
	.cfi_def_cfa 7, 8
	ret
	.cfi_endproc
.LFE63:
	.size	writeExy, .-writeExy
	.section	.rodata
	.align 8
.LC159:
	.string	"ERROR: readEys and not been finished."
	.text
	.globl	readEys
	.type	readEys, @function
readEys:
.LFB64:
	.cfi_startproc
	pushq	%rbp
	.cfi_def_cfa_offset 16
	.cfi_offset 6, -16
	movq	%rsp, %rbp
	.cfi_def_cfa_register 6
	subq	$16, %rsp
	movq	%rdi, -8(%rbp)
	movq	%rsi, -16(%rbp)
	leaq	.LC159(%rip), %rax
	movq	%rax, %rdi
	call	puts@PLT
	movl	emb_verbose(%rip), %eax
	cmpl	$1, %eax
	jle	.L595
	movq	-8(%rbp), %rax
	movq	%rax, %rsi
	leaq	.LC105(%rip), %rax
	movq	%rax, %rdi
	movl	$0, %eax
	call	printf@PLT
.L595:
	movl	emb_verbose(%rip), %eax
	cmpl	$1, %eax
	jle	.L596
	movq	-16(%rbp), %rax
	movq	%rax, %rsi
	leaq	.LC158(%rip), %rax
	movq	%rax, %rdi
	movl	$0, %eax
	call	printf@PLT
.L596:
	movl	$0, %eax
	leave
	.cfi_def_cfa 7, 8
	ret
	.cfi_endproc
.LFE64:
	.size	readEys, .-readEys
	.section	.rodata
	.align 8
.LC160:
	.string	"ERROR: writeEys and not been finished."
	.text
	.globl	writeEys
	.type	writeEys, @function
writeEys:
.LFB65:
	.cfi_startproc
	pushq	%rbp
	.cfi_def_cfa_offset 16
	.cfi_offset 6, -16
	movq	%rsp, %rbp
	.cfi_def_cfa_register 6
	subq	$16, %rsp
	movq	%rdi, -8(%rbp)
	movq	%rsi, -16(%rbp)
	leaq	.LC160(%rip), %rax
	movq	%rax, %rdi
	call	puts@PLT
	movl	emb_verbose(%rip), %eax
	cmpl	$1, %eax
	jle	.L599
	movq	-8(%rbp), %rax
	movq	%rax, %rsi
	leaq	.LC105(%rip), %rax
	movq	%rax, %rdi
	movl	$0, %eax
	call	printf@PLT
.L599:
	movl	emb_verbose(%rip), %eax
	cmpl	$1, %eax
	jle	.L600
	movq	-16(%rbp), %rax
	movq	%rax, %rsi
	leaq	.LC158(%rip), %rax
	movq	%rax, %rdi
	movl	$0, %eax
	call	printf@PLT
.L600:
	movl	$0, %eax
	leave
	.cfi_def_cfa 7, 8
	ret
	.cfi_endproc
.LFE65:
	.size	writeEys, .-writeEys
	.globl	readFxy
	.type	readFxy, @function
readFxy:
.LFB66:
	.cfi_startproc
	pushq	%rbp
	.cfi_def_cfa_offset 16
	.cfi_offset 6, -16
	movq	%rsp, %rbp
	.cfi_def_cfa_register 6
	subq	$32, %rsp
	movq	%rdi, -24(%rbp)
	movq	%rsi, -32(%rbp)
	movq	-32(%rbp), %rax
	movl	$0, %edx
	movl	$256, %esi
	movq	%rax, %rdi
	call	fseek@PLT
	jmp	.L603
.L610:
	movl	$0, -4(%rbp)
	movq	-32(%rbp), %rax
	movq	%rax, %rdi
	call	fgetc@PLT
	movl	%eax, -8(%rbp)
	movq	-32(%rbp), %rax
	movq	%rax, %rdi
	call	fgetc@PLT
	movl	%eax, -12(%rbp)
	movq	-32(%rbp), %rax
	movq	%rax, %rdi
	call	fgetc@PLT
	movb	%al, -13(%rbp)
	cmpb	$-111, -13(%rbp)
	jne	.L604
	movq	-24(%rbp), %rax
	movl	$1, %edx
	movl	$16, %esi
	pxor	%xmm1, %xmm1
	movl	.LC17(%rip), %ecx
	movd	%ecx, %xmm0
	movq	%rax, %rdi
	call	emb_pattern_addStitchRel@PLT
	jmp	.L605
.L604:
	movzbl	-13(%rbp), %eax
	andl	$1, %eax
	testl	%eax, %eax
	je	.L606
	movl	$2, -4(%rbp)
.L606:
	movzbl	-13(%rbp), %eax
	andl	$2, %eax
	testl	%eax, %eax
	je	.L607
	movl	$4, -4(%rbp)
.L607:
	movzbl	-13(%rbp), %eax
	andl	$32, %eax
	testl	%eax, %eax
	je	.L608
	negl	-8(%rbp)
.L608:
	movzbl	-13(%rbp), %eax
	andl	$64, %eax
	testl	%eax, %eax
	je	.L609
	negl	-12(%rbp)
.L609:
	pxor	%xmm0, %xmm0
	cvtsi2sdl	-8(%rbp), %xmm0
	movsd	.LC30(%rip), %xmm1
	divsd	%xmm1, %xmm0
	pxor	%xmm2, %xmm2
	cvtsd2ss	%xmm0, %xmm2
	pxor	%xmm0, %xmm0
	cvtsi2sdl	-12(%rbp), %xmm0
	movsd	.LC30(%rip), %xmm1
	divsd	%xmm1, %xmm0
	pxor	%xmm3, %xmm3
	cvtsd2ss	%xmm0, %xmm3
	movd	%xmm3, %ecx
	movl	-4(%rbp), %esi
	movq	-24(%rbp), %rax
	movl	$1, %edx
	movaps	%xmm2, %xmm1
	movd	%ecx, %xmm0
	movq	%rax, %rdi
	call	emb_pattern_addStitchRel@PLT
.L603:
	movq	-32(%rbp), %rax
	movq	%rax, %rdi
	call	feof@PLT
	testl	%eax, %eax
	je	.L610
.L605:
	movl	$1, %eax
	leave
	.cfi_def_cfa 7, 8
	ret
	.cfi_endproc
.LFE66:
	.size	readFxy, .-readFxy
	.section	.rodata
.LC161:
	.string	"%p %p\n"
	.text
	.globl	writeFxy
	.type	writeFxy, @function
writeFxy:
.LFB67:
	.cfi_startproc
	pushq	%rbp
	.cfi_def_cfa_offset 16
	.cfi_offset 6, -16
	movq	%rsp, %rbp
	.cfi_def_cfa_register 6
	subq	$16, %rsp
	movq	%rdi, -8(%rbp)
	movq	%rsi, -16(%rbp)
	leaq	.LC42(%rip), %rax
	movq	%rax, %rdi
	call	puts@PLT
	movq	-16(%rbp), %rdx
	movq	-8(%rbp), %rax
	movq	%rax, %rsi
	leaq	.LC161(%rip), %rax
	movq	%rax, %rdi
	movl	$0, %eax
	call	printf@PLT
	movl	$0, %eax
	leave
	.cfi_def_cfa 7, 8
	ret
	.cfi_endproc
.LFE67:
	.size	writeFxy, .-writeFxy
	.section	.rodata
	.align 8
.LC162:
	.string	"ERROR: readGc and not been finished."
	.text
	.globl	readGc
	.type	readGc, @function
readGc:
.LFB68:
	.cfi_startproc
	pushq	%rbp
	.cfi_def_cfa_offset 16
	.cfi_offset 6, -16
	movq	%rsp, %rbp
	.cfi_def_cfa_register 6
	subq	$16, %rsp
	movq	%rdi, -8(%rbp)
	movq	%rsi, -16(%rbp)
	leaq	.LC162(%rip), %rax
	movq	%rax, %rdi
	call	puts@PLT
	movq	-16(%rbp), %rdx
	movq	-8(%rbp), %rax
	movq	%rax, %rsi
	leaq	.LC161(%rip), %rax
	movq	%rax, %rdi
	movl	$0, %eax
	call	printf@PLT
	movl	$0, %eax
	leave
	.cfi_def_cfa 7, 8
	ret
	.cfi_endproc
.LFE68:
	.size	readGc, .-readGc
	.section	.rodata
	.align 8
.LC163:
	.string	"ERROR: writeGc and not been finished."
	.text
	.globl	writeGc
	.type	writeGc, @function
writeGc:
.LFB69:
	.cfi_startproc
	pushq	%rbp
	.cfi_def_cfa_offset 16
	.cfi_offset 6, -16
	movq	%rsp, %rbp
	.cfi_def_cfa_register 6
	subq	$16, %rsp
	movq	%rdi, -8(%rbp)
	movq	%rsi, -16(%rbp)
	leaq	.LC163(%rip), %rax
	movq	%rax, %rdi
	call	puts@PLT
	movq	-16(%rbp), %rdx
	movq	-8(%rbp), %rax
	movq	%rax, %rsi
	leaq	.LC161(%rip), %rax
	movq	%rax, %rdi
	movl	$0, %eax
	call	printf@PLT
	movl	$0, %eax
	leave
	.cfi_def_cfa 7, 8
	ret
	.cfi_endproc
.LFE69:
	.size	writeGc, .-writeGc
	.section	.rodata
	.align 8
.LC164:
	.string	"ERROR: readGnc and not been finished."
	.text
	.globl	readGnc
	.type	readGnc, @function
readGnc:
.LFB70:
	.cfi_startproc
	pushq	%rbp
	.cfi_def_cfa_offset 16
	.cfi_offset 6, -16
	movq	%rsp, %rbp
	.cfi_def_cfa_register 6
	subq	$16, %rsp
	movq	%rdi, -8(%rbp)
	movq	%rsi, -16(%rbp)
	leaq	.LC164(%rip), %rax
	movq	%rax, %rdi
	call	puts@PLT
	movq	-16(%rbp), %rdx
	movq	-8(%rbp), %rax
	movq	%rax, %rsi
	leaq	.LC161(%rip), %rax
	movq	%rax, %rdi
	movl	$0, %eax
	call	printf@PLT
	movl	$0, %eax
	leave
	.cfi_def_cfa 7, 8
	ret
	.cfi_endproc
.LFE70:
	.size	readGnc, .-readGnc
	.section	.rodata
	.align 8
.LC165:
	.string	"ERROR: writeGnc and not been finished."
	.text
	.globl	writeGnc
	.type	writeGnc, @function
writeGnc:
.LFB71:
	.cfi_startproc
	pushq	%rbp
	.cfi_def_cfa_offset 16
	.cfi_offset 6, -16
	movq	%rsp, %rbp
	.cfi_def_cfa_register 6
	subq	$16, %rsp
	movq	%rdi, -8(%rbp)
	movq	%rsi, -16(%rbp)
	leaq	.LC165(%rip), %rax
	movq	%rax, %rdi
	call	puts@PLT
	movq	-16(%rbp), %rdx
	movq	-8(%rbp), %rax
	movq	%rax, %rsi
	leaq	.LC161(%rip), %rax
	movq	%rax, %rdi
	movl	$0, %eax
	call	printf@PLT
	movl	$0, %eax
	leave
	.cfi_def_cfa 7, 8
	ret
	.cfi_endproc
.LFE71:
	.size	writeGnc, .-writeGnc
	.globl	readGt
	.type	readGt, @function
readGt:
.LFB72:
	.cfi_startproc
	pushq	%rbp
	.cfi_def_cfa_offset 16
	.cfi_offset 6, -16
	movq	%rsp, %rbp
	.cfi_def_cfa_register 6
	subq	$32, %rsp
	movq	%rdi, -24(%rbp)
	movq	%rsi, -32(%rbp)
	movq	-32(%rbp), %rax
	movl	$0, %edx
	movl	$512, %esi
	movq	%rax, %rdi
	call	fseek@PLT
	jmp	.L623
.L630:
	movl	$0, -4(%rbp)
	movq	-32(%rbp), %rax
	movq	%rax, %rdi
	call	fgetc@PLT
	movl	%eax, -8(%rbp)
	movq	-32(%rbp), %rax
	movq	%rax, %rdi
	call	fgetc@PLT
	movl	%eax, -12(%rbp)
	movq	-32(%rbp), %rax
	movq	%rax, %rdi
	call	fgetc@PLT
	movb	%al, -13(%rbp)
	cmpb	$-111, -13(%rbp)
	jne	.L624
	movq	-24(%rbp), %rax
	movl	$1, %edx
	movl	$16, %esi
	pxor	%xmm1, %xmm1
	movl	.LC17(%rip), %ecx
	movd	%ecx, %xmm0
	movq	%rax, %rdi
	call	emb_pattern_addStitchRel@PLT
	jmp	.L625
.L624:
	movzbl	-13(%rbp), %eax
	andl	$1, %eax
	testl	%eax, %eax
	je	.L626
	movl	$2, -4(%rbp)
.L626:
	movzbl	-13(%rbp), %eax
	andl	$2, %eax
	testl	%eax, %eax
	je	.L627
	movl	$4, -4(%rbp)
.L627:
	movzbl	-13(%rbp), %eax
	andl	$32, %eax
	testl	%eax, %eax
	je	.L628
	negl	-8(%rbp)
.L628:
	movzbl	-13(%rbp), %eax
	andl	$64, %eax
	testl	%eax, %eax
	je	.L629
	negl	-12(%rbp)
.L629:
	pxor	%xmm0, %xmm0
	cvtsi2sdl	-8(%rbp), %xmm0
	movsd	.LC30(%rip), %xmm1
	divsd	%xmm1, %xmm0
	pxor	%xmm2, %xmm2
	cvtsd2ss	%xmm0, %xmm2
	pxor	%xmm0, %xmm0
	cvtsi2sdl	-12(%rbp), %xmm0
	movsd	.LC30(%rip), %xmm1
	divsd	%xmm1, %xmm0
	pxor	%xmm3, %xmm3
	cvtsd2ss	%xmm0, %xmm3
	movd	%xmm3, %ecx
	movl	-4(%rbp), %esi
	movq	-24(%rbp), %rax
	movl	$1, %edx
	movaps	%xmm2, %xmm1
	movd	%ecx, %xmm0
	movq	%rax, %rdi
	call	emb_pattern_addStitchRel@PLT
.L623:
	movq	-32(%rbp), %rax
	movq	%rax, %rdi
	call	feof@PLT
	testl	%eax, %eax
	je	.L630
.L625:
	movl	$1, %eax
	leave
	.cfi_def_cfa 7, 8
	ret
	.cfi_endproc
.LFE72:
	.size	readGt, .-readGt
	.section	.rodata
	.align 8
.LC166:
	.string	"ERROR: gt not supported in write mode."
	.text
	.globl	writeGt
	.type	writeGt, @function
writeGt:
.LFB73:
	.cfi_startproc
	pushq	%rbp
	.cfi_def_cfa_offset 16
	.cfi_offset 6, -16
	movq	%rsp, %rbp
	.cfi_def_cfa_register 6
	subq	$16, %rsp
	movq	%rdi, -8(%rbp)
	movq	%rsi, -16(%rbp)
	leaq	.LC166(%rip), %rax
	movq	%rax, %rdi
	call	puts@PLT
	movq	-16(%rbp), %rdx
	movq	-8(%rbp), %rax
	movq	%rax, %rsi
	leaq	.LC161(%rip), %rax
	movq	%rax, %rdi
	movl	$0, %eax
	call	printf@PLT
	movl	$0, %eax
	leave
	.cfi_def_cfa 7, 8
	ret
	.cfi_endproc
.LFE73:
	.size	writeGt, .-writeGt
	.globl	husDecodeStitchType
	.type	husDecodeStitchType, @function
husDecodeStitchType:
.LFB74:
	.cfi_startproc
	pushq	%rbp
	.cfi_def_cfa_offset 16
	.cfi_offset 6, -16
	movq	%rsp, %rbp
	.cfi_def_cfa_register 6
	movl	%edi, %eax
	movb	%al, -4(%rbp)
	movzbl	-4(%rbp), %eax
	cmpl	$144, %eax
	je	.L635
	cmpl	$144, %eax
	jg	.L636
	cmpl	$132, %eax
	je	.L637
	cmpl	$132, %eax
	jg	.L636
	cmpl	$128, %eax
	je	.L638
	cmpl	$129, %eax
	je	.L639
	jmp	.L636
.L638:
	movl	$0, %eax
	jmp	.L640
.L639:
	movl	$1, %eax
	jmp	.L640
.L637:
	movl	$4, %eax
	jmp	.L640
.L635:
	movl	$16, %eax
	jmp	.L640
.L636:
	movl	$0, %eax
.L640:
	popq	%rbp
	.cfi_def_cfa 7, 8
	ret
	.cfi_endproc
.LFE74:
	.size	husDecodeStitchType, .-husDecodeStitchType
	.section	.rodata
	.align 8
.LC167:
	.string	"ERROR: husDecompressData(), cannot allocate memory for decompressedData"
	.text
	.globl	husDecompressData
	.type	husDecompressData, @function
husDecompressData:
.LFB75:
	.cfi_startproc
	pushq	%rbp
	.cfi_def_cfa_offset 16
	.cfi_offset 6, -16
	movq	%rsp, %rbp
	.cfi_def_cfa_register 6
	subq	$32, %rsp
	movq	%rdi, -24(%rbp)
	movl	%esi, -28(%rbp)
	movl	%edx, -32(%rbp)
	movl	-32(%rbp), %eax
	cltq
	movq	%rax, %rdi
	call	malloc@PLT
	movq	%rax, -8(%rbp)
	cmpq	$0, -8(%rbp)
	jne	.L642
	leaq	.LC167(%rip), %rax
	movq	%rax, %rdi
	call	puts@PLT
	movl	$0, %eax
	jmp	.L643
.L642:
	leaq	-32(%rbp), %rcx
	movq	-8(%rbp), %rdx
	movl	-28(%rbp), %esi
	movq	-24(%rbp), %rax
	movq	%rax, %rdi
	call	hus_decompress@PLT
	movq	-8(%rbp), %rax
.L643:
	leave
	.cfi_def_cfa 7, 8
	ret
	.cfi_endproc
.LFE75:
	.size	husDecompressData, .-husDecompressData
	.section	.rodata
	.align 8
.LC168:
	.string	"ERROR: husCompressData(), cannot allocate memory for compressedData"
	.text
	.globl	husCompressData
	.type	husCompressData, @function
husCompressData:
.LFB76:
	.cfi_startproc
	pushq	%rbp
	.cfi_def_cfa_offset 16
	.cfi_offset 6, -16
	movq	%rsp, %rbp
	.cfi_def_cfa_register 6
	subq	$48, %rsp
	movq	%rdi, -24(%rbp)
	movl	%esi, -28(%rbp)
	movq	%rdx, -40(%rbp)
	movl	-28(%rbp), %eax
	cltq
	addq	%rax, %rax
	movq	%rax, %rdi
	call	malloc@PLT
	movq	%rax, -8(%rbp)
	cmpq	$0, -8(%rbp)
	jne	.L645
	leaq	.LC168(%rip), %rax
	movq	%rax, %rdi
	call	puts@PLT
	movl	$0, %eax
	jmp	.L646
.L645:
	movq	-40(%rbp), %rcx
	movq	-8(%rbp), %rdx
	movl	-28(%rbp), %esi
	movq	-24(%rbp), %rax
	movq	%rax, %rdi
	call	hus_compress@PLT
	movq	-8(%rbp), %rax
.L646:
	leave
	.cfi_def_cfa 7, 8
	ret
	.cfi_endproc
.LFE76:
	.size	husCompressData, .-husCompressData
	.globl	husDecodeByte
	.type	husDecodeByte, @function
husDecodeByte:
.LFB77:
	.cfi_startproc
	pushq	%rbp
	.cfi_def_cfa_offset 16
	.cfi_offset 6, -16
	movq	%rsp, %rbp
	.cfi_def_cfa_register 6
	movl	%edi, %eax
	movb	%al, -4(%rbp)
	movzbl	-4(%rbp), %eax
	movsbl	%al, %eax
	popq	%rbp
	.cfi_def_cfa 7, 8
	ret
	.cfi_endproc
.LFE77:
	.size	husDecodeByte, .-husDecodeByte
	.globl	husEncodeByte
	.type	husEncodeByte, @function
husEncodeByte:
.LFB78:
	.cfi_startproc
	pushq	%rbp
	.cfi_def_cfa_offset 16
	.cfi_offset 6, -16
	movq	%rsp, %rbp
	.cfi_def_cfa_register 6
	subq	$16, %rsp
	movss	%xmm0, -4(%rbp)
	movl	-4(%rbp), %eax
	movd	%eax, %xmm0
	call	emb_round@PLT
	leave
	.cfi_def_cfa 7, 8
	ret
	.cfi_endproc
.LFE78:
	.size	husEncodeByte, .-husEncodeByte
	.globl	husEncodeStitchType
	.type	husEncodeStitchType, @function
husEncodeStitchType:
.LFB79:
	.cfi_startproc
	pushq	%rbp
	.cfi_def_cfa_offset 16
	.cfi_offset 6, -16
	movq	%rsp, %rbp
	.cfi_def_cfa_register 6
	movl	%edi, -4(%rbp)
	cmpl	$16, -4(%rbp)
	je	.L652
	cmpl	$16, -4(%rbp)
	jg	.L653
	cmpl	$4, -4(%rbp)
	je	.L654
	cmpl	$4, -4(%rbp)
	jg	.L653
	cmpl	$0, -4(%rbp)
	je	.L655
	cmpl	$0, -4(%rbp)
	js	.L653
	movl	-4(%rbp), %eax
	subl	$1, %eax
	cmpl	$1, %eax
	ja	.L653
	jmp	.L658
.L655:
	movl	$-128, %eax
	jmp	.L657
.L658:
	movl	$-127, %eax
	jmp	.L657
.L654:
	movl	$-124, %eax
	jmp	.L657
.L652:
	movl	$-112, %eax
	jmp	.L657
.L653:
	movl	$-128, %eax
.L657:
	popq	%rbp
	.cfi_def_cfa 7, 8
	ret
	.cfi_endproc
.LFE79:
	.size	husEncodeStitchType, .-husEncodeStitchType
	.section	.rodata
.LC169:
	.string	"magicCode: %d\n"
.LC170:
	.string	"numberOfStitches: %d\n"
.LC171:
	.string	"numberOfColors: %d\n"
.LC172:
	.string	"positiveXHoopSize: %d\n"
.LC173:
	.string	"positiveYHoopSize: %d\n"
.LC174:
	.string	"negativeXHoopSize: %d\n"
.LC175:
	.string	"negativeYHoopSize: %d\n"
.LC176:
	.string	"attributeOffset: %d\n"
.LC177:
	.string	"xOffset: %d\n"
.LC178:
	.string	"yOffset: %d\n"
	.align 8
.LC179:
	.string	"ERROR: format-hus.c readHus(), cannot allocate memory for stringVal"
	.align 8
.LC180:
	.string	"Ran out of bytes before full file read."
.LC181:
	.string	"unknown: %d\n"
	.align 8
.LC182:
	.string	"ERROR: format-hus.c readHus(), cannot allocate memory for attributeData"
	.align 8
.LC183:
	.string	"ERROR: format-hus.c readHus(), cannot allocate memory for xData"
	.align 8
.LC184:
	.string	"ERROR: format-hus.c readHus(), cannot allocate memory for yData"
	.text
	.globl	readHus
	.type	readHus, @function
readHus:
.LFB80:
	.cfi_startproc
	pushq	%rbp
	.cfi_def_cfa_offset 16
	.cfi_offset 6, -16
	movq	%rsp, %rbp
	.cfi_def_cfa_register 6
	subq	$160, %rsp
	movq	%rdi, -152(%rbp)
	movq	%rsi, -160(%rbp)
	movq	$0, -16(%rbp)
	movq	$0, -24(%rbp)
	movq	$0, -32(%rbp)
	movq	$0, -40(%rbp)
	movl	$0, -4(%rbp)
	movq	-160(%rbp), %rax
	movl	$2, %edx
	movl	$0, %esi
	movq	%rax, %rdi
	call	fseek@PLT
	movq	-160(%rbp), %rax
	movq	%rax, %rdi
	call	ftell@PLT
	movl	%eax, -44(%rbp)
	movq	-160(%rbp), %rax
	movl	$0, %edx
	movl	$0, %esi
	movq	%rax, %rdi
	call	fseek@PLT
	movq	-160(%rbp), %rax
	movq	%rax, %rdi
	call	emb_read_i32@PLT
	movl	%eax, -48(%rbp)
	movq	-160(%rbp), %rax
	movq	%rax, %rdi
	call	emb_read_i32@PLT
	movl	%eax, -52(%rbp)
	movq	-160(%rbp), %rax
	movq	%rax, %rdi
	call	emb_read_i32@PLT
	movl	%eax, -56(%rbp)
	movq	-160(%rbp), %rax
	movq	%rax, %rdi
	call	emb_read_i16@PLT
	cwtl
	movl	%eax, -60(%rbp)
	movq	-160(%rbp), %rax
	movq	%rax, %rdi
	call	emb_read_i16@PLT
	cwtl
	movl	%eax, -64(%rbp)
	movq	-160(%rbp), %rax
	movq	%rax, %rdi
	call	emb_read_i16@PLT
	cwtl
	movl	%eax, -68(%rbp)
	movq	-160(%rbp), %rax
	movq	%rax, %rdi
	call	emb_read_i16@PLT
	cwtl
	movl	%eax, -72(%rbp)
	movq	-160(%rbp), %rax
	movq	%rax, %rdi
	call	emb_read_i32@PLT
	movl	%eax, -76(%rbp)
	movq	-160(%rbp), %rax
	movq	%rax, %rdi
	call	emb_read_i32@PLT
	movl	%eax, -80(%rbp)
	movq	-160(%rbp), %rax
	movq	%rax, %rdi
	call	emb_read_i32@PLT
	movl	%eax, -84(%rbp)
	movl	emb_verbose(%rip), %eax
	cmpl	$1, %eax
	jle	.L660
	movl	-48(%rbp), %eax
	movl	%eax, %esi
	leaq	.LC169(%rip), %rax
	movq	%rax, %rdi
	movl	$0, %eax
	call	printf@PLT
.L660:
	movl	emb_verbose(%rip), %eax
	cmpl	$1, %eax
	jle	.L661
	movl	-52(%rbp), %eax
	movl	%eax, %esi
	leaq	.LC170(%rip), %rax
	movq	%rax, %rdi
	movl	$0, %eax
	call	printf@PLT
.L661:
	movl	emb_verbose(%rip), %eax
	cmpl	$1, %eax
	jle	.L662
	movl	-56(%rbp), %eax
	movl	%eax, %esi
	leaq	.LC171(%rip), %rax
	movq	%rax, %rdi
	movl	$0, %eax
	call	printf@PLT
.L662:
	movl	emb_verbose(%rip), %eax
	cmpl	$1, %eax
	jle	.L663
	movl	-60(%rbp), %eax
	movl	%eax, %esi
	leaq	.LC172(%rip), %rax
	movq	%rax, %rdi
	movl	$0, %eax
	call	printf@PLT
.L663:
	movl	emb_verbose(%rip), %eax
	cmpl	$1, %eax
	jle	.L664
	movl	-64(%rbp), %eax
	movl	%eax, %esi
	leaq	.LC173(%rip), %rax
	movq	%rax, %rdi
	movl	$0, %eax
	call	printf@PLT
.L664:
	movl	emb_verbose(%rip), %eax
	cmpl	$1, %eax
	jle	.L665
	movl	-68(%rbp), %eax
	movl	%eax, %esi
	leaq	.LC174(%rip), %rax
	movq	%rax, %rdi
	movl	$0, %eax
	call	printf@PLT
.L665:
	movl	emb_verbose(%rip), %eax
	cmpl	$1, %eax
	jle	.L666
	movl	-72(%rbp), %eax
	movl	%eax, %esi
	leaq	.LC175(%rip), %rax
	movq	%rax, %rdi
	movl	$0, %eax
	call	printf@PLT
.L666:
	movl	emb_verbose(%rip), %eax
	cmpl	$1, %eax
	jle	.L667
	movl	-76(%rbp), %eax
	movl	%eax, %esi
	leaq	.LC176(%rip), %rax
	movq	%rax, %rdi
	movl	$0, %eax
	call	printf@PLT
.L667:
	movl	emb_verbose(%rip), %eax
	cmpl	$1, %eax
	jle	.L668
	movl	-80(%rbp), %eax
	movl	%eax, %esi
	leaq	.LC177(%rip), %rax
	movq	%rax, %rdi
	movl	$0, %eax
	call	printf@PLT
.L668:
	movl	emb_verbose(%rip), %eax
	cmpl	$1, %eax
	jle	.L669
	movl	-84(%rbp), %eax
	movl	%eax, %esi
	leaq	.LC178(%rip), %rax
	movq	%rax, %rdi
	movl	$0, %eax
	call	printf@PLT
.L669:
	movl	$8, %edi
	call	malloc@PLT
	movq	%rax, -40(%rbp)
	cmpq	$0, -40(%rbp)
	jne	.L670
	leaq	.LC179(%rip), %rax
	movq	%rax, %rdi
	call	puts@PLT
	movl	$0, %eax
	jmp	.L671
.L670:
	movq	$8, -96(%rbp)
	movq	-160(%rbp), %rcx
	movq	-96(%rbp), %rdx
	movq	-40(%rbp), %rax
	movl	$1, %esi
	movq	%rax, %rdi
	call	fread@PLT
	cmpq	%rax, -96(%rbp)
	je	.L672
	leaq	.LC180(%rip), %rax
	movq	%rax, %rdi
	call	puts@PLT
	movl	$0, %eax
	jmp	.L671
.L672:
	movq	-160(%rbp), %rax
	movq	%rax, %rdi
	call	emb_read_i16@PLT
	cwtl
	movl	%eax, -100(%rbp)
	movl	-100(%rbp), %eax
	movl	%eax, %esi
	leaq	.LC181(%rip), %rax
	movq	%rax, %rdi
	movl	$0, %eax
	call	printf@PLT
	movl	$0, -4(%rbp)
	jmp	.L673
.L674:
	movq	-160(%rbp), %rax
	movq	%rax, %rdi
	call	emb_read_i16@PLT
	movw	%ax, -134(%rbp)
	movswl	-134(%rbp), %eax
	movq	-152(%rbp), %r8
	subq	$8, %rsp
	cltq
	imulq	$403, %rax, %rax
	leaq	hus_colors(%rip), %rcx
	subq	$408, %rsp
	movq	%rsp, %rdx
	addq	%rcx, %rax
	movl	$50, %ecx
	movq	%rdx, %rdi
	movq	%rax, %rsi
	rep movsq
	movq	%rsi, %rax
	movq	%rdi, %rdx
	movzwl	(%rax), %ecx
	movw	%cx, (%rdx)
	leaq	2(%rdx), %rdx
	leaq	2(%rax), %rax
	movzbl	(%rax), %ecx
	movb	%cl, (%rdx)
	movq	%r8, %rdi
	call	emb_pattern_addThread@PLT
	addq	$416, %rsp
	addl	$1, -4(%rbp)
.L673:
	movl	-4(%rbp), %eax
	cmpl	-56(%rbp), %eax
	jl	.L674
	movl	-80(%rbp), %eax
	subl	-76(%rbp), %eax
	addl	$1, %eax
	cltq
	movq	%rax, %rdi
	call	malloc@PLT
	movq	%rax, -112(%rbp)
	cmpq	$0, -112(%rbp)
	jne	.L675
	leaq	.LC182(%rip), %rax
	movq	%rax, %rdi
	call	puts@PLT
	movl	$0, %eax
	jmp	.L671
.L675:
	movl	-80(%rbp), %eax
	subl	-76(%rbp), %eax
	cltq
	movq	%rax, -96(%rbp)
	movq	-160(%rbp), %rcx
	movq	-96(%rbp), %rdx
	movq	-112(%rbp), %rax
	movl	$1, %esi
	movq	%rax, %rdi
	call	fread@PLT
	cmpq	%rax, -96(%rbp)
	je	.L676
	leaq	.LC180(%rip), %rax
	movq	%rax, %rdi
	call	puts@PLT
	movl	$0, %eax
	jmp	.L671
.L676:
	movl	-52(%rbp), %eax
	leal	1(%rax), %edx
	movq	-96(%rbp), %rax
	movl	%eax, %ecx
	movq	-112(%rbp), %rax
	movl	%ecx, %esi
	movq	%rax, %rdi
	call	husDecompressData
	movq	%rax, -16(%rbp)
	movl	-84(%rbp), %eax
	subl	-80(%rbp), %eax
	addl	$1, %eax
	cltq
	movq	%rax, %rdi
	call	malloc@PLT
	movq	%rax, -120(%rbp)
	cmpq	$0, -120(%rbp)
	jne	.L677
	leaq	.LC183(%rip), %rax
	movq	%rax, %rdi
	call	puts@PLT
	movl	$0, %eax
	jmp	.L671
.L677:
	movl	-84(%rbp), %eax
	subl	-80(%rbp), %eax
	cltq
	movq	%rax, -96(%rbp)
	movq	-160(%rbp), %rcx
	movq	-96(%rbp), %rdx
	movq	-120(%rbp), %rax
	movl	$1, %esi
	movq	%rax, %rdi
	call	fread@PLT
	cmpq	%rax, -96(%rbp)
	je	.L678
	leaq	.LC180(%rip), %rax
	movq	%rax, %rdi
	call	puts@PLT
	movl	$0, %eax
	jmp	.L671
.L678:
	movq	-96(%rbp), %rax
	movl	%eax, %ecx
	movl	-52(%rbp), %edx
	movq	-120(%rbp), %rax
	movl	%ecx, %esi
	movq	%rax, %rdi
	call	husDecompressData
	movq	%rax, -24(%rbp)
	movl	-44(%rbp), %eax
	subl	-84(%rbp), %eax
	addl	$1, %eax
	cltq
	movq	%rax, %rdi
	call	malloc@PLT
	movq	%rax, -128(%rbp)
	cmpq	$0, -128(%rbp)
	jne	.L679
	leaq	.LC184(%rip), %rax
	movq	%rax, %rdi
	call	puts@PLT
	movl	$0, %eax
	jmp	.L671
.L679:
	movl	-44(%rbp), %eax
	subl	-84(%rbp), %eax
	cltq
	movq	%rax, -96(%rbp)
	movq	-160(%rbp), %rcx
	movq	-96(%rbp), %rdx
	movq	-128(%rbp), %rax
	movl	$1, %esi
	movq	%rax, %rdi
	call	fread@PLT
	cmpq	%rax, -96(%rbp)
	je	.L680
	leaq	.LC180(%rip), %rax
	movq	%rax, %rdi
	call	puts@PLT
	movl	$0, %eax
	jmp	.L671
.L680:
	movq	-96(%rbp), %rax
	movl	%eax, %ecx
	movl	-52(%rbp), %edx
	movq	-128(%rbp), %rax
	movl	%ecx, %esi
	movq	%rax, %rdi
	call	husDecompressData
	movq	%rax, -32(%rbp)
	movl	$0, -4(%rbp)
	jmp	.L681
.L682:
	movl	-4(%rbp), %eax
	movslq	%eax, %rdx
	movq	-24(%rbp), %rax
	addq	%rdx, %rax
	movzbl	(%rax), %eax
	movzbl	%al, %eax
	movl	%eax, %edi
	call	husDecodeByte
	pxor	%xmm0, %xmm0
	cvtsi2sdl	%eax, %xmm0
	movsd	.LC30(%rip), %xmm1
	divsd	%xmm1, %xmm0
	cvtsd2ss	%xmm0, %xmm0
	movss	%xmm0, -144(%rbp)
	movl	-4(%rbp), %eax
	movslq	%eax, %rdx
	movq	-32(%rbp), %rax
	addq	%rdx, %rax
	movzbl	(%rax), %eax
	movzbl	%al, %eax
	movl	%eax, %edi
	call	husDecodeByte
	pxor	%xmm0, %xmm0
	cvtsi2sdl	%eax, %xmm0
	movsd	.LC30(%rip), %xmm1
	divsd	%xmm1, %xmm0
	cvtsd2ss	%xmm0, %xmm0
	movss	%xmm0, -140(%rbp)
	movl	-4(%rbp), %eax
	movslq	%eax, %rdx
	movq	-16(%rbp), %rax
	addq	%rdx, %rax
	movzbl	(%rax), %eax
	movzbl	%al, %eax
	movl	%eax, %edi
	call	husDecodeStitchType
	movl	%eax, -132(%rbp)
	movss	-140(%rbp), %xmm0
	movl	-144(%rbp), %ecx
	movl	-132(%rbp), %esi
	movq	-152(%rbp), %rax
	movl	$1, %edx
	movaps	%xmm0, %xmm1
	movd	%ecx, %xmm0
	movq	%rax, %rdi
	call	emb_pattern_addStitchRel@PLT
	addl	$1, -4(%rbp)
.L681:
	movl	-4(%rbp), %eax
	cmpl	-52(%rbp), %eax
	jl	.L682
	movq	-40(%rbp), %rax
	movq	%rax, %rdi
	call	safe_free@PLT
	movq	-120(%rbp), %rax
	movq	%rax, %rdi
	call	safe_free@PLT
	movq	-24(%rbp), %rax
	movq	%rax, %rdi
	call	safe_free@PLT
	movq	-128(%rbp), %rax
	movq	%rax, %rdi
	call	safe_free@PLT
	movq	-32(%rbp), %rax
	movq	%rax, %rdi
	call	safe_free@PLT
	movq	-112(%rbp), %rax
	movq	%rax, %rdi
	call	safe_free@PLT
	movq	-16(%rbp), %rax
	movq	%rax, %rdi
	call	safe_free@PLT
	movl	$1, %eax
.L671:
	leave
	.cfi_def_cfa 7, 8
	ret
	.cfi_endproc
.LFE80:
	.size	readHus, .-readHus
	.section	.rodata
	.align 8
.LC185:
	.string	"ERROR: format-hus.c writeHus(), cannot allocate memory for xValues"
	.align 8
.LC186:
	.string	"ERROR: format-hus.c writeHus(), cannot allocate memory for yValues"
	.align 8
.LC187:
	.string	"ERROR: format-hus.c writeHus(), cannot allocate memory for attributeValues"
	.text
	.globl	writeHus
	.type	writeHus, @function
writeHus:
.LFB81:
	.cfi_startproc
	pushq	%rbp
	.cfi_def_cfa_offset 16
	.cfi_offset 6, -16
	movq	%rsp, %rbp
	.cfi_def_cfa_register 6
	pushq	%rbx
	subq	$184, %rsp
	.cfi_offset 3, -24
	movq	%rdi, -184(%rbp)
	movq	%rsi, -192(%rbp)
	movq	$0, -40(%rbp)
	movq	$0, -48(%rbp)
	movq	$0, -56(%rbp)
	movq	$0, -64(%rbp)
	movq	$0, -72(%rbp)
	movq	$0, -80(%rbp)
	movq	-184(%rbp), %rax
	movq	32(%rax), %rax
	movl	24(%rax), %eax
	movl	%eax, -84(%rbp)
	movq	-184(%rbp), %rax
	movq	24(%rax), %rax
	movl	24(%rax), %eax
	movl	%eax, -20(%rbp)
	movl	-20(%rbp), %eax
	movl	%eax, -88(%rbp)
	cmpl	$24, -20(%rbp)
	jle	.L684
	movl	$24, -20(%rbp)
.L684:
	movl	$13152091, -92(%rbp)
	movl	-92(%rbp), %edx
	movq	-192(%rbp), %rax
	movl	%edx, %esi
	movq	%rax, %rdi
	call	emb_write_i32@PLT
	movl	-84(%rbp), %edx
	movq	-192(%rbp), %rax
	movl	%edx, %esi
	movq	%rax, %rdi
	call	emb_write_i32@PLT
	movl	-20(%rbp), %edx
	movq	-192(%rbp), %rax
	movl	%edx, %esi
	movq	%rax, %rdi
	call	emb_write_i32@PLT
	leaq	-144(%rbp), %rax
	movq	-184(%rbp), %rdx
	movq	%rdx, %rsi
	movq	%rax, %rdi
	call	emb_pattern_bounds@PLT
	movss	-136(%rbp), %xmm1
	movss	-144(%rbp), %xmm0
	addss	%xmm0, %xmm1
	movss	.LC18(%rip), %xmm0
	mulss	%xmm0, %xmm1
	movd	%xmm1, %eax
	movd	%eax, %xmm0
	call	emb_round@PLT
	movw	%ax, -94(%rbp)
	movss	-140(%rbp), %xmm1
	movss	.LC18(%rip), %xmm0
	mulss	%xmm0, %xmm1
	movd	%xmm1, %eax
	movd	%eax, %xmm0
	call	emb_round@PLT
	negl	%eax
	movw	%ax, -96(%rbp)
	movss	-144(%rbp), %xmm1
	movss	.LC18(%rip), %xmm0
	mulss	%xmm0, %xmm1
	movd	%xmm1, %eax
	movd	%eax, %xmm0
	call	emb_round@PLT
	movw	%ax, -98(%rbp)
	movss	-132(%rbp), %xmm1
	movss	-140(%rbp), %xmm0
	addss	%xmm0, %xmm1
	movss	.LC18(%rip), %xmm0
	mulss	%xmm0, %xmm1
	movd	%xmm1, %eax
	movd	%eax, %xmm0
	call	emb_round@PLT
	negl	%eax
	movw	%ax, -100(%rbp)
	movswl	-94(%rbp), %edx
	movq	-192(%rbp), %rax
	movl	%edx, %esi
	movq	%rax, %rdi
	call	emb_write_i16@PLT
	movswl	-96(%rbp), %edx
	movq	-192(%rbp), %rax
	movl	%edx, %esi
	movq	%rax, %rdi
	call	emb_write_i16@PLT
	movswl	-98(%rbp), %edx
	movq	-192(%rbp), %rax
	movl	%edx, %esi
	movq	%rax, %rdi
	call	emb_write_i16@PLT
	movswl	-100(%rbp), %edx
	movq	-192(%rbp), %rax
	movl	%edx, %esi
	movq	%rax, %rdi
	call	emb_write_i16@PLT
	movl	-20(%rbp), %eax
	addl	$21, %eax
	addl	%eax, %eax
	movl	%eax, -104(%rbp)
	movl	-104(%rbp), %edx
	movq	-192(%rbp), %rax
	movl	%edx, %esi
	movq	%rax, %rdi
	call	emb_write_i32@PLT
	movl	-84(%rbp), %eax
	cltq
	movq	%rax, %rdi
	call	malloc@PLT
	movq	%rax, -40(%rbp)
	cmpq	$0, -40(%rbp)
	jne	.L685
	leaq	.LC185(%rip), %rax
	movq	%rax, %rdi
	call	puts@PLT
	movl	$0, %eax
	jmp	.L693
.L685:
	movl	-84(%rbp), %eax
	cltq
	movq	%rax, %rdi
	call	malloc@PLT
	movq	%rax, -48(%rbp)
	cmpq	$0, -48(%rbp)
	jne	.L687
	leaq	.LC186(%rip), %rax
	movq	%rax, %rdi
	call	puts@PLT
	movl	$0, %eax
	jmp	.L693
.L687:
	movl	-84(%rbp), %eax
	cltq
	movq	%rax, %rdi
	call	malloc@PLT
	movq	%rax, -56(%rbp)
	cmpq	$0, -56(%rbp)
	jne	.L688
	leaq	.LC187(%rip), %rax
	movq	%rax, %rdi
	call	puts@PLT
	movl	$0, %eax
	jmp	.L693
.L688:
	pxor	%xmm0, %xmm0
	movss	%xmm0, -28(%rbp)
	pxor	%xmm0, %xmm0
	movss	%xmm0, -32(%rbp)
	movl	$0, -24(%rbp)
	jmp	.L689
.L690:
	movq	-184(%rbp), %rax
	movq	32(%rax), %rax
	movq	8(%rax), %rax
	movl	-24(%rbp), %edx
	movslq	%edx, %rdx
	salq	$4, %rdx
	addq	%rdx, %rax
	movq	8(%rax), %rdx
	movq	(%rax), %rax
	movq	%rax, -176(%rbp)
	movq	%rdx, -168(%rbp)
	movss	-172(%rbp), %xmm0
	movaps	%xmm0, %xmm1
	subss	-28(%rbp), %xmm1
	movss	.LC18(%rip), %xmm0
	mulss	%xmm0, %xmm1
	movd	%xmm1, %eax
	movl	-24(%rbp), %edx
	movslq	%edx, %rcx
	movq	-40(%rbp), %rdx
	leaq	(%rcx,%rdx), %rbx
	movd	%eax, %xmm0
	call	husEncodeByte
	movb	%al, (%rbx)
	movss	-172(%rbp), %xmm0
	movss	%xmm0, -28(%rbp)
	movss	-168(%rbp), %xmm0
	subss	-32(%rbp), %xmm0
	movaps	%xmm0, %xmm1
	movss	.LC18(%rip), %xmm0
	mulss	%xmm0, %xmm1
	movd	%xmm1, %eax
	movl	-24(%rbp), %edx
	movslq	%edx, %rcx
	movq	-48(%rbp), %rdx
	leaq	(%rcx,%rdx), %rbx
	movd	%eax, %xmm0
	call	husEncodeByte
	movb	%al, (%rbx)
	movss	-168(%rbp), %xmm0
	movss	%xmm0, -32(%rbp)
	movl	-176(%rbp), %eax
	movl	-24(%rbp), %edx
	movslq	%edx, %rcx
	movq	-56(%rbp), %rdx
	leaq	(%rcx,%rdx), %rbx
	movl	%eax, %edi
	call	husEncodeStitchType
	movb	%al, (%rbx)
	addl	$1, -24(%rbp)
.L689:
	movq	-184(%rbp), %rax
	movq	32(%rax), %rax
	movl	24(%rax), %eax
	cmpl	%eax, -24(%rbp)
	jl	.L690
	leaq	-148(%rbp), %rdx
	movl	-84(%rbp), %ecx
	movq	-56(%rbp), %rax
	movl	%ecx, %esi
	movq	%rax, %rdi
	call	husCompressData
	movq	%rax, -64(%rbp)
	leaq	-152(%rbp), %rdx
	movl	-84(%rbp), %ecx
	movq	-40(%rbp), %rax
	movl	%ecx, %esi
	movq	%rax, %rdi
	call	husCompressData
	movq	%rax, -72(%rbp)
	leaq	-156(%rbp), %rdx
	movl	-84(%rbp), %ecx
	movq	-48(%rbp), %rax
	movl	%ecx, %esi
	movq	%rax, %rdi
	call	husCompressData
	movq	%rax, -80(%rbp)
	movl	-88(%rbp), %eax
	addl	$21, %eax
	leal	(%rax,%rax), %edx
	movl	-148(%rbp), %eax
	addl	%edx, %eax
	movl	%eax, -108(%rbp)
	movl	-88(%rbp), %eax
	addl	$21, %eax
	leal	(%rax,%rax), %edx
	movl	-148(%rbp), %eax
	addl	%eax, %edx
	movl	-152(%rbp), %eax
	addl	%edx, %eax
	movl	%eax, -112(%rbp)
	movl	-108(%rbp), %edx
	movq	-192(%rbp), %rax
	movl	%edx, %esi
	movq	%rax, %rdi
	call	emb_write_i32@PLT
	movl	-112(%rbp), %edx
	movq	-192(%rbp), %rax
	movl	%edx, %esi
	movq	%rax, %rdi
	call	emb_write_i32@PLT
	movq	-192(%rbp), %rax
	movl	$10, %edx
	movl	$0, %esi
	movq	%rax, %rdi
	call	fpad@PLT
	movl	$0, -24(%rbp)
	jmp	.L691
.L692:
	movq	-184(%rbp), %rax
	movq	24(%rax), %rax
	movq	16(%rax), %rdx
	movl	-24(%rbp), %eax
	cltq
	imulq	$403, %rax, %rax
	addq	%rdx, %rax
	movl	$29, %edx
	leaq	hus_colors(%rip), %rcx
	movq	%rcx, %rsi
	movzbl	(%rax), %ecx
	movzbl	1(%rax), %edi
	salq	$8, %rdi
	orq	%rdi, %rcx
	movzbl	2(%rax), %eax
	salq	$16, %rax
	orq	%rcx, %rax
	movq	%rax, %rdi
	call	emb_find_nearest_thread@PLT
	movw	%ax, -114(%rbp)
	movswl	-114(%rbp), %edx
	movq	-192(%rbp), %rax
	movl	%edx, %esi
	movq	%rax, %rdi
	call	emb_write_i16@PLT
	addl	$1, -24(%rbp)
.L691:
	movl	-24(%rbp), %eax
	cmpl	-88(%rbp), %eax
	jl	.L692
	movl	-148(%rbp), %eax
	movslq	%eax, %rdx
	movq	-192(%rbp), %rcx
	movq	-64(%rbp), %rax
	movl	$1, %esi
	movq	%rax, %rdi
	call	fwrite@PLT
	movl	-152(%rbp), %eax
	movslq	%eax, %rdx
	movq	-192(%rbp), %rcx
	movq	-72(%rbp), %rax
	movl	$1, %esi
	movq	%rax, %rdi
	call	fwrite@PLT
	movl	-156(%rbp), %eax
	movslq	%eax, %rdx
	movq	-192(%rbp), %rcx
	movq	-80(%rbp), %rax
	movl	$1, %esi
	movq	%rax, %rdi
	call	fwrite@PLT
	movq	-40(%rbp), %rax
	movq	%rax, %rdi
	call	safe_free@PLT
	movq	-72(%rbp), %rax
	movq	%rax, %rdi
	call	safe_free@PLT
	movq	-48(%rbp), %rax
	movq	%rax, %rdi
	call	safe_free@PLT
	movq	-80(%rbp), %rax
	movq	%rax, %rdi
	call	safe_free@PLT
	movq	-56(%rbp), %rax
	movq	%rax, %rdi
	call	safe_free@PLT
	movq	-64(%rbp), %rax
	movq	%rax, %rdi
	call	safe_free@PLT
	movl	$1, %eax
.L693:
	movq	-8(%rbp), %rbx
	leave
	.cfi_def_cfa 7, 8
	ret
	.cfi_endproc
.LFE81:
	.size	writeHus, .-writeHus
	.section	.rodata
	.align 8
.LC188:
	.string	"ERROR: failed to read single byte from file."
.LC189:
	.string	"nullVal: %d\n"
.LC190:
	.string	"stitchCount: %d\n"
.LC191:
	.string	"width: %d\n"
.LC192:
	.string	"height: %d\n"
.LC193:
	.string	"colorCount: %d\n"
.LC194:
	.string	"unknown3: %d\n"
.LC195:
	.string	"unknown2: %d\n"
.LC196:
	.string	"imageWidth: %d\n"
.LC197:
	.string	"imageHeight: %d\n"
.LC198:
	.string	"nullbyte: %d\n"
.LC199:
	.string	"left: %d\n"
.LC200:
	.string	"right: %d\n"
.LC201:
	.string	"top: %d\n"
.LC202:
	.string	"bottom: %d\n"
	.text
	.globl	readInb
	.type	readInb, @function
readInb:
.LFB82:
	.cfi_startproc
	pushq	%rbp
	.cfi_def_cfa_offset 16
	.cfi_offset 6, -16
	movq	%rsp, %rbp
	.cfi_def_cfa_register 6
	subq	$384, %rsp
	movq	%rdi, -376(%rbp)
	movq	%rsi, -384(%rbp)
	movq	-384(%rbp), %rax
	movl	$2, %edx
	movl	$0, %esi
	movq	%rax, %rdi
	call	fseek@PLT
	movq	-384(%rbp), %rax
	movq	%rax, %rdi
	call	ftell@PLT
	movl	%eax, -20(%rbp)
	movq	-384(%rbp), %rdx
	leaq	-57(%rbp), %rax
	movq	%rdx, %rcx
	movl	$8, %edx
	movl	$1, %esi
	movq	%rax, %rdi
	call	fread@PLT
	movq	-384(%rbp), %rdx
	leaq	-58(%rbp), %rax
	movq	%rdx, %rcx
	movl	$1, %edx
	movl	$1, %esi
	movq	%rax, %rdi
	call	fread@PLT
	cmpq	$1, %rax
	je	.L695
	leaq	.LC188(%rip), %rax
	movq	%rax, %rdi
	call	puts@PLT
.L695:
	movl	emb_verbose(%rip), %eax
	cmpl	$1, %eax
	jle	.L696
	movzbl	-58(%rbp), %eax
	movzbl	%al, %eax
	movl	%eax, %esi
	leaq	.LC189(%rip), %rax
	movq	%rax, %rdi
	movl	$0, %eax
	call	printf@PLT
.L696:
	movq	-384(%rbp), %rax
	movq	%rax, %rdi
	call	fgetc@PLT
	movq	-384(%rbp), %rax
	movq	%rax, %rdi
	call	fgetc@PLT
	movq	-384(%rbp), %rax
	movq	%rax, %rdi
	call	emb_read_i32@PLT
	movl	%eax, -24(%rbp)
	movl	emb_verbose(%rip), %eax
	cmpl	$1, %eax
	jle	.L697
	movl	-24(%rbp), %eax
	movl	%eax, %esi
	leaq	.LC190(%rip), %rax
	movq	%rax, %rdi
	movl	$0, %eax
	call	printf@PLT
.L697:
	movq	-384(%rbp), %rax
	movq	%rax, %rdi
	call	emb_read_i16@PLT
	movw	%ax, -26(%rbp)
	movl	emb_verbose(%rip), %eax
	cmpl	$1, %eax
	jle	.L698
	movswl	-26(%rbp), %eax
	movl	%eax, %esi
	leaq	.LC191(%rip), %rax
	movq	%rax, %rdi
	movl	$0, %eax
	call	printf@PLT
.L698:
	movq	-384(%rbp), %rax
	movq	%rax, %rdi
	call	emb_read_i16@PLT
	movw	%ax, -28(%rbp)
	movl	emb_verbose(%rip), %eax
	cmpl	$1, %eax
	jle	.L699
	movswl	-28(%rbp), %eax
	movl	%eax, %esi
	leaq	.LC192(%rip), %rax
	movq	%rax, %rdi
	movl	$0, %eax
	call	printf@PLT
.L699:
	movq	-384(%rbp), %rax
	movq	%rax, %rdi
	call	emb_read_i16@PLT
	movw	%ax, -30(%rbp)
	movl	emb_verbose(%rip), %eax
	cmpl	$1, %eax
	jle	.L700
	movswl	-30(%rbp), %eax
	movl	%eax, %esi
	leaq	.LC193(%rip), %rax
	movq	%rax, %rdi
	movl	$0, %eax
	call	printf@PLT
.L700:
	movq	-384(%rbp), %rax
	movq	%rax, %rdi
	call	emb_read_i16@PLT
	movw	%ax, -32(%rbp)
	movl	emb_verbose(%rip), %eax
	cmpl	$1, %eax
	jle	.L701
	movswl	-32(%rbp), %eax
	movl	%eax, %esi
	leaq	.LC194(%rip), %rax
	movq	%rax, %rdi
	movl	$0, %eax
	call	printf@PLT
.L701:
	movq	-384(%rbp), %rax
	movq	%rax, %rdi
	call	emb_read_i16@PLT
	movw	%ax, -34(%rbp)
	movl	emb_verbose(%rip), %eax
	cmpl	$1, %eax
	jle	.L702
	movswl	-34(%rbp), %eax
	movl	%eax, %esi
	leaq	.LC195(%rip), %rax
	movq	%rax, %rdi
	movl	$0, %eax
	call	printf@PLT
.L702:
	movq	-384(%rbp), %rax
	movq	%rax, %rdi
	call	emb_read_i16@PLT
	movw	%ax, -36(%rbp)
	movl	emb_verbose(%rip), %eax
	cmpl	$1, %eax
	jle	.L703
	movswl	-36(%rbp), %eax
	movl	%eax, %esi
	leaq	.LC196(%rip), %rax
	movq	%rax, %rdi
	movl	$0, %eax
	call	printf@PLT
.L703:
	movq	-384(%rbp), %rax
	movq	%rax, %rdi
	call	emb_read_i16@PLT
	movw	%ax, -38(%rbp)
	movl	emb_verbose(%rip), %eax
	cmpl	$1, %eax
	jle	.L704
	movswl	-38(%rbp), %eax
	movl	%eax, %esi
	leaq	.LC197(%rip), %rax
	movq	%rax, %rdi
	movl	$0, %eax
	call	printf@PLT
.L704:
	movq	-384(%rbp), %rdx
	leaq	-368(%rbp), %rax
	movq	%rdx, %rcx
	movl	$300, %edx
	movl	$1, %esi
	movq	%rax, %rdi
	call	fread@PLT
	movq	-384(%rbp), %rax
	movq	%rax, %rdi
	call	emb_read_i16@PLT
	movw	%ax, -40(%rbp)
	movl	emb_verbose(%rip), %eax
	cmpl	$1, %eax
	jle	.L705
	movswl	-40(%rbp), %eax
	movl	%eax, %esi
	leaq	.LC198(%rip), %rax
	movq	%rax, %rdi
	movl	$0, %eax
	call	printf@PLT
.L705:
	movq	-384(%rbp), %rax
	movq	%rax, %rdi
	call	emb_read_i16@PLT
	movw	%ax, -42(%rbp)
	movl	emb_verbose(%rip), %eax
	cmpl	$1, %eax
	jle	.L706
	movswl	-42(%rbp), %eax
	movl	%eax, %esi
	leaq	.LC199(%rip), %rax
	movq	%rax, %rdi
	movl	$0, %eax
	call	printf@PLT
.L706:
	movq	-384(%rbp), %rax
	movq	%rax, %rdi
	call	emb_read_i16@PLT
	movw	%ax, -44(%rbp)
	movl	emb_verbose(%rip), %eax
	cmpl	$1, %eax
	jle	.L707
	movswl	-44(%rbp), %eax
	movl	%eax, %esi
	leaq	.LC200(%rip), %rax
	movq	%rax, %rdi
	movl	$0, %eax
	call	printf@PLT
.L707:
	movq	-384(%rbp), %rax
	movq	%rax, %rdi
	call	emb_read_i16@PLT
	movw	%ax, -46(%rbp)
	movl	emb_verbose(%rip), %eax
	cmpl	$1, %eax
	jle	.L708
	movswl	-46(%rbp), %eax
	movl	%eax, %esi
	leaq	.LC201(%rip), %rax
	movq	%rax, %rdi
	movl	$0, %eax
	call	printf@PLT
.L708:
	movq	-384(%rbp), %rax
	movq	%rax, %rdi
	call	emb_read_i16@PLT
	movw	%ax, -48(%rbp)
	movl	emb_verbose(%rip), %eax
	cmpl	$1, %eax
	jle	.L709
	movswl	-48(%rbp), %eax
	movl	%eax, %esi
	leaq	.LC202(%rip), %rax
	movq	%rax, %rdi
	movl	$0, %eax
	call	printf@PLT
.L709:
	movq	-384(%rbp), %rax
	movl	$0, %edx
	movl	$8192, %esi
	movq	%rax, %rdi
	call	fseek@PLT
	movl	-20(%rbp), %eax
	subl	$8192, %eax
	movslq	%eax, %rdx
	imulq	$1431655766, %rdx, %rdx
	movq	%rdx, %rcx
	shrq	$32, %rcx
	cltd
	movl	%ecx, %eax
	subl	%edx, %eax
	movl	%eax, -24(%rbp)
	movl	$0, -12(%rbp)
	jmp	.L710
.L715:
	movl	$0, -16(%rbp)
	movq	-384(%rbp), %rax
	movq	%rax, %rdi
	call	fgetc@PLT
	movsbl	%al, %eax
	movl	%eax, -4(%rbp)
	movq	-384(%rbp), %rax
	movq	%rax, %rdi
	call	fgetc@PLT
	movsbl	%al, %eax
	movl	%eax, -8(%rbp)
	movq	-384(%rbp), %rax
	movq	%rax, %rdi
	call	fgetc@PLT
	movb	%al, -49(%rbp)
	movzbl	-49(%rbp), %eax
	andl	$64, %eax
	testl	%eax, %eax
	jle	.L711
	negl	-4(%rbp)
.L711:
	movzbl	-49(%rbp), %eax
	andl	$16, %eax
	testl	%eax, %eax
	jle	.L712
	negl	-8(%rbp)
.L712:
	movzbl	-49(%rbp), %eax
	andl	$1, %eax
	testl	%eax, %eax
	jle	.L713
	movl	$4, -16(%rbp)
.L713:
	movzbl	-49(%rbp), %eax
	andl	$2, %eax
	testl	%eax, %eax
	jle	.L714
	movl	$2, -16(%rbp)
.L714:
	pxor	%xmm0, %xmm0
	cvtsi2sdl	-8(%rbp), %xmm0
	movsd	.LC30(%rip), %xmm1
	divsd	%xmm1, %xmm0
	pxor	%xmm2, %xmm2
	cvtsd2ss	%xmm0, %xmm2
	pxor	%xmm0, %xmm0
	cvtsi2sdl	-4(%rbp), %xmm0
	movsd	.LC30(%rip), %xmm1
	divsd	%xmm1, %xmm0
	pxor	%xmm3, %xmm3
	cvtsd2ss	%xmm0, %xmm3
	movd	%xmm3, %ecx
	movl	-16(%rbp), %esi
	movq	-376(%rbp), %rax
	movl	$1, %edx
	movaps	%xmm2, %xmm1
	movd	%ecx, %xmm0
	movq	%rax, %rdi
	call	emb_pattern_addStitchRel@PLT
	addl	$1, -12(%rbp)
.L710:
	movl	-12(%rbp), %eax
	cmpl	-24(%rbp), %eax
	jl	.L715
	movq	-376(%rbp), %rax
	movq	%rax, %rdi
	call	emb_pattern_flipVertical@PLT
	movl	$1, %eax
	leave
	.cfi_def_cfa 7, 8
	ret
	.cfi_endproc
.LFE82:
	.size	readInb, .-readInb
	.section	.rodata
	.align 8
.LC203:
	.string	"ERROR: writeInb not implemented."
	.text
	.globl	writeInb
	.type	writeInb, @function
writeInb:
.LFB83:
	.cfi_startproc
	pushq	%rbp
	.cfi_def_cfa_offset 16
	.cfi_offset 6, -16
	movq	%rsp, %rbp
	.cfi_def_cfa_register 6
	subq	$16, %rsp
	movq	%rdi, -8(%rbp)
	movq	%rsi, -16(%rbp)
	leaq	.LC203(%rip), %rax
	movq	%rax, %rdi
	call	puts@PLT
	movl	emb_verbose(%rip), %eax
	cmpl	$1, %eax
	jle	.L718
	movq	-8(%rbp), %rax
	movq	%rax, %rsi
	leaq	.LC105(%rip), %rax
	movq	%rax, %rdi
	movl	$0, %eax
	call	printf@PLT
.L718:
	movl	emb_verbose(%rip), %eax
	cmpl	$1, %eax
	jle	.L719
	movq	-16(%rbp), %rax
	movq	%rax, %rsi
	leaq	.LC158(%rip), %rax
	movq	%rax, %rdi
	movl	$0, %eax
	call	printf@PLT
.L719:
	movl	$0, %eax
	leave
	.cfi_def_cfa 7, 8
	ret
	.cfi_endproc
.LFE83:
	.size	writeInb, .-writeInb
	.globl	readInf
	.type	readInf, @function
readInf:
.LFB84:
	.cfi_startproc
	pushq	%rbp
	.cfi_def_cfa_offset 16
	.cfi_offset 6, -16
	movq	%rsp, %rbp
	.cfi_def_cfa_register 6
	subq	$560, %rsp
	movq	%rdi, -552(%rbp)
	movq	%rsi, -560(%rbp)
	movq	-560(%rbp), %rax
	movl	$1, %edx
	movl	$12, %esi
	movq	%rax, %rdi
	call	fseek@PLT
	movq	-560(%rbp), %rax
	movq	%rax, %rdi
	call	emb_read_i32be@PLT
	movl	%eax, -8(%rbp)
	movq	-552(%rbp), %rax
	movq	24(%rax), %rax
	movl	$0, 24(%rax)
	movl	$0, -4(%rbp)
	jmp	.L722
.L723:
	movq	-560(%rbp), %rax
	movl	$1, %edx
	movl	$4, %esi
	movq	%rax, %rdi
	call	fseek@PLT
	leaq	-544(%rbp), %rcx
	movq	-560(%rbp), %rax
	movl	$3, %edx
	movq	%rcx, %rsi
	movq	%rax, %rdi
	call	embColor_read@PLT
	movb	$0, -341(%rbp)
	movb	$0, -541(%rbp)
	movq	-552(%rbp), %r8
	subq	$8, %rsp
	subq	$408, %rsp
	movq	%rsp, %rax
	movq	%rax, %rdx
	leaq	-544(%rbp), %rax
	movl	$50, %ecx
	movq	%rdx, %rdi
	movq	%rax, %rsi
	rep movsq
	movq	%rsi, %rax
	movq	%rdi, %rdx
	movzwl	(%rax), %ecx
	movw	%cx, (%rdx)
	leaq	2(%rdx), %rdx
	leaq	2(%rax), %rax
	movzbl	(%rax), %ecx
	movb	%cl, (%rdx)
	movq	%r8, %rdi
	call	emb_pattern_addThread@PLT
	addq	$416, %rsp
	movq	-560(%rbp), %rax
	movl	$1, %edx
	movl	$2, %esi
	movq	%rax, %rdi
	call	fseek@PLT
	leaq	-64(%rbp), %rcx
	movq	-560(%rbp), %rax
	movl	$50, %edx
	movq	%rcx, %rsi
	movq	%rax, %rdi
	call	binaryReadString@PLT
	leaq	-128(%rbp), %rcx
	movq	-560(%rbp), %rax
	movl	$50, %edx
	movq	%rcx, %rsi
	movq	%rax, %rdi
	call	binaryReadString@PLT
	addl	$1, -4(%rbp)
.L722:
	movl	-4(%rbp), %eax
	cmpl	-8(%rbp), %eax
	jl	.L723
	movl	$1, %eax
	leave
	.cfi_def_cfa 7, 8
	ret
	.cfi_endproc
.LFE84:
	.size	readInf, .-readInf
	.section	.rodata
.LC204:
	.string	"RGB(%d,%d,%d)"
.LC205:
	.string	"RGB"
	.string	""
.LC206:
	.string	""
	.string	""
	.text
	.globl	writeInf
	.type	writeInf, @function
writeInf:
.LFB85:
	.cfi_startproc
	pushq	%rbp
	.cfi_def_cfa_offset 16
	.cfi_offset 6, -16
	movq	%rsp, %rbp
	.cfi_def_cfa_register 6
	subq	$240, %rsp
	movq	%rdi, -232(%rbp)
	movq	%rsi, -240(%rbp)
	movq	-240(%rbp), %rax
	movl	$1, %esi
	movq	%rax, %rdi
	call	emb_write_u32be@PLT
	movq	-240(%rbp), %rax
	movl	$8, %esi
	movq	%rax, %rdi
	call	emb_write_u32be@PLT
	movq	-240(%rbp), %rax
	movl	$0, %esi
	movq	%rax, %rdi
	call	emb_write_u32be@PLT
	movq	-232(%rbp), %rax
	movq	24(%rax), %rax
	movl	24(%rax), %eax
	movl	%eax, %edx
	movq	-240(%rbp), %rax
	movl	%edx, %esi
	movq	%rax, %rdi
	call	emb_write_u32be@PLT
	movl	$0, -4(%rbp)
	jmp	.L726
.L727:
	movq	-232(%rbp), %rax
	movq	24(%rax), %rax
	movq	16(%rax), %rdx
	movl	-4(%rbp), %eax
	cltq
	imulq	$403, %rax, %rax
	addq	%rdx, %rax
	movzwl	(%rax), %edx
	movw	%dx, -17(%rbp)
	movzbl	2(%rax), %eax
	movb	%al, -15(%rbp)
	movzbl	-15(%rbp), %eax
	movzbl	%al, %esi
	movzbl	-16(%rbp), %eax
	movzbl	%al, %ecx
	movzbl	-17(%rbp), %eax
	movzbl	%al, %edx
	leaq	-224(%rbp), %rax
	movl	%esi, %r8d
	leaq	.LC204(%rip), %rsi
	movq	%rax, %rdi
	movl	$0, %eax
	call	sprintf@PLT
	leaq	-224(%rbp), %rax
	movq	%rax, %rdi
	call	strlen@PLT
	addl	$14, %eax
	movw	%ax, -10(%rbp)
	movl	-4(%rbp), %eax
	movw	%ax, -12(%rbp)
	movl	-4(%rbp), %eax
	movw	%ax, -14(%rbp)
	movzwl	-10(%rbp), %eax
	movswl	%ax, %edx
	movq	-240(%rbp), %rax
	movl	%edx, %esi
	movq	%rax, %rdi
	call	emb_write_i16be@PLT
	movzwl	-12(%rbp), %eax
	movswl	%ax, %edx
	movq	-240(%rbp), %rax
	movl	%edx, %esi
	movq	%rax, %rdi
	call	emb_write_i16be@PLT
	movq	-240(%rbp), %rax
	movl	$3, %edx
	movzbl	-17(%rbp), %ecx
	movzbl	-16(%rbp), %esi
	salq	$8, %rsi
	orq	%rcx, %rsi
	movzbl	-15(%rbp), %ecx
	salq	$16, %rcx
	orq	%rsi, %rcx
	movq	%rcx, %rsi
	movq	%rax, %rdi
	call	embColor_write@PLT
	movzwl	-14(%rbp), %eax
	movswl	%ax, %edx
	movq	-240(%rbp), %rax
	movl	%edx, %esi
	movq	%rax, %rdi
	call	emb_write_i16be@PLT
	movq	-240(%rbp), %rax
	movq	%rax, %rcx
	movl	$4, %edx
	movl	$1, %esi
	leaq	.LC205(%rip), %rax
	movq	%rax, %rdi
	call	fwrite@PLT
	movq	-240(%rbp), %rdx
	leaq	-224(%rbp), %rax
	movq	%rdx, %rsi
	movq	%rax, %rdi
	call	fputs@PLT
	movq	-240(%rbp), %rax
	movq	%rax, %rcx
	movl	$1, %edx
	movl	$1, %esi
	leaq	.LC206(%rip), %rax
	movq	%rax, %rdi
	call	fwrite@PLT
	addl	$1, -4(%rbp)
.L726:
	movq	-232(%rbp), %rax
	movq	24(%rax), %rax
	movl	24(%rax), %eax
	cmpl	%eax, -4(%rbp)
	jl	.L727
	movq	-240(%rbp), %rax
	movl	$8, %edx
	movl	$0, %esi
	movq	%rax, %rdi
	call	fpad@PLT
	movq	-240(%rbp), %rax
	movl	$2, %edx
	movq	$-8, %rsi
	movq	%rax, %rdi
	call	fseek@PLT
	movq	-240(%rbp), %rax
	movq	%rax, %rdi
	call	ftell@PLT
	movl	%eax, -8(%rbp)
	movq	-240(%rbp), %rax
	movl	$0, %edx
	movl	$8, %esi
	movq	%rax, %rdi
	call	fseek@PLT
	movl	-8(%rbp), %edx
	movq	-240(%rbp), %rax
	movl	%edx, %esi
	movq	%rax, %rdi
	call	emb_write_u32be@PLT
	movl	$1, %eax
	leave
	.cfi_def_cfa 7, 8
	ret
	.cfi_endproc
.LFE85:
	.size	writeInf, .-writeInf
	.globl	jefGetHoopSize
	.type	jefGetHoopSize, @function
jefGetHoopSize:
.LFB86:
	.cfi_startproc
	pushq	%rbp
	.cfi_def_cfa_offset 16
	.cfi_offset 6, -16
	movq	%rsp, %rbp
	.cfi_def_cfa_register 6
	movl	%edi, -4(%rbp)
	movl	%esi, -8(%rbp)
	cmpl	$49, -4(%rbp)
	jg	.L730
	cmpl	$49, -8(%rbp)
	jg	.L730
	movl	$2, %eax
	jmp	.L731
.L730:
	cmpl	$109, -4(%rbp)
	jg	.L732
	cmpl	$109, -8(%rbp)
	jg	.L732
	movl	$1, %eax
	jmp	.L731
.L732:
	cmpl	$139, -4(%rbp)
	jg	.L733
	cmpl	$199, -8(%rbp)
	jg	.L733
	movl	$3, %eax
	jmp	.L731
.L733:
	movl	$1, %eax
.L731:
	popq	%rbp
	.cfi_def_cfa 7, 8
	ret
	.cfi_endproc
.LFE86:
	.size	jefGetHoopSize, .-jefGetHoopSize
	.globl	jefDecode
	.type	jefDecode, @function
jefDecode:
.LFB87:
	.cfi_startproc
	pushq	%rbp
	.cfi_def_cfa_offset 16
	.cfi_offset 6, -16
	movq	%rsp, %rbp
	.cfi_def_cfa_register 6
	movl	%edi, %eax
	movb	%al, -4(%rbp)
	movzbl	-4(%rbp), %eax
	testb	%al, %al
	jns	.L735
	movzbl	-4(%rbp), %eax
	jmp	.L736
.L735:
	movzbl	-4(%rbp), %eax
.L736:
	popq	%rbp
	.cfi_def_cfa 7, 8
	ret
	.cfi_endproc
.LFE87:
	.size	jefDecode, .-jefDecode
	.section	.rodata
	.align 8
.LC207:
	.string	"ERROR: format-jef.c jefSetHoopFromId(), pattern argument is null"
	.text
	.globl	jefSetHoopFromId
	.type	jefSetHoopFromId, @function
jefSetHoopFromId:
.LFB88:
	.cfi_startproc
	pushq	%rbp
	.cfi_def_cfa_offset 16
	.cfi_offset 6, -16
	movq	%rsp, %rbp
	.cfi_def_cfa_register 6
	subq	$16, %rsp
	movq	%rdi, -8(%rbp)
	movl	%esi, -12(%rbp)
	cmpq	$0, -8(%rbp)
	jne	.L738
	leaq	.LC207(%rip), %rax
	movq	%rax, %rdi
	call	puts@PLT
	jmp	.L737
.L738:
	cmpl	$3, -12(%rbp)
	je	.L740
	cmpl	$3, -12(%rbp)
	jg	.L741
	cmpl	$2, -12(%rbp)
	je	.L742
	cmpl	$2, -12(%rbp)
	jg	.L741
	cmpl	$0, -12(%rbp)
	je	.L743
	cmpl	$1, -12(%rbp)
	je	.L744
	jmp	.L741
.L743:
	movq	-8(%rbp), %rax
	movss	.LC208(%rip), %xmm0
	movss	%xmm0, 20(%rax)
	movq	-8(%rbp), %rax
	movss	.LC209(%rip), %xmm0
	movss	%xmm0, 16(%rax)
	jmp	.L737
.L742:
	movq	-8(%rbp), %rax
	movss	.LC210(%rip), %xmm0
	movss	%xmm0, 20(%rax)
	movq	-8(%rbp), %rax
	movss	.LC210(%rip), %xmm0
	movss	%xmm0, 16(%rax)
	jmp	.L737
.L744:
	movq	-8(%rbp), %rax
	movss	.LC209(%rip), %xmm0
	movss	%xmm0, 20(%rax)
	movq	-8(%rbp), %rax
	movss	.LC209(%rip), %xmm0
	movss	%xmm0, 16(%rax)
	jmp	.L737
.L740:
	movq	-8(%rbp), %rax
	movss	.LC211(%rip), %xmm0
	movss	%xmm0, 20(%rax)
	movq	-8(%rbp), %rax
	movss	.LC212(%rip), %xmm0
	movss	%xmm0, 16(%rax)
	jmp	.L737
.L741:
	movq	-8(%rbp), %rax
	movss	.LC213(%rip), %xmm0
	movss	%xmm0, 20(%rax)
	movq	-8(%rbp), %rax
	movss	.LC212(%rip), %xmm0
	movss	%xmm0, 16(%rax)
	nop
.L737:
	leave
	.cfi_def_cfa 7, 8
	ret
	.cfi_endproc
.LFE88:
	.size	jefSetHoopFromId, .-jefSetHoopFromId
	.globl	read_hoop
	.type	read_hoop, @function
read_hoop:
.LFB89:
	.cfi_startproc
	pushq	%rbp
	.cfi_def_cfa_offset 16
	.cfi_offset 6, -16
	movq	%rsp, %rbp
	.cfi_def_cfa_register 6
	subq	$32, %rsp
	movq	%rdi, -8(%rbp)
	movq	%rsi, -16(%rbp)
	movq	%rdx, -24(%rbp)
	movl	emb_verbose(%rip), %eax
	cmpl	$1, %eax
	jle	.L746
	movq	-24(%rbp), %rax
	movq	%rax, %rdi
	call	puts@PLT
.L746:
	movq	-8(%rbp), %rax
	movq	%rax, %rdi
	call	emb_read_i32@PLT
	movq	-16(%rbp), %rdx
	movl	%eax, (%rdx)
	movq	-8(%rbp), %rax
	movq	%rax, %rdi
	call	emb_read_i32@PLT
	movq	-16(%rbp), %rdx
	movl	%eax, 8(%rdx)
	movq	-8(%rbp), %rax
	movq	%rax, %rdi
	call	emb_read_i32@PLT
	movq	-16(%rbp), %rdx
	movl	%eax, 4(%rdx)
	movq	-8(%rbp), %rax
	movq	%rax, %rdi
	call	emb_read_i32@PLT
	movq	-16(%rbp), %rdx
	movl	%eax, 12(%rdx)
	nop
	leave
	.cfi_def_cfa 7, 8
	ret
	.cfi_endproc
.LFE89:
	.size	read_hoop, .-read_hoop
	.section	.rodata
	.align 8
.LC214:
	.string	"ERROR: this file is corrupted or has too many stitches."
.LC215:
	.string	"format flags = %d\n"
.LC216:
	.string	"number of colors = %d\n"
.LC217:
	.string	"number of stitches = %d\n"
.LC218:
	.string	"bounds"
.LC219:
	.string	"rectFrom110x110"
.LC220:
	.string	"rectFrom50x50"
.LC221:
	.string	"rectFrom200x140"
.LC222:
	.string	"rect_from_custom"
	.text
	.globl	readJef
	.type	readJef, @function
readJef:
.LFB90:
	.cfi_startproc
	pushq	%rbp
	.cfi_def_cfa_offset 16
	.cfi_offset 6, -16
	movq	%rsp, %rbp
	.cfi_def_cfa_register 6
	subq	$576, %rsp
	movq	%rdi, -568(%rbp)
	movq	%rsi, -576(%rbp)
	movq	-576(%rbp), %rax
	movq	%rax, %rdi
	call	emb_read_i32@PLT
	movl	%eax, -16(%rbp)
	movq	-576(%rbp), %rax
	movq	%rax, %rdi
	call	emb_read_i32@PLT
	movl	%eax, -20(%rbp)
	movq	-576(%rbp), %rdx
	leaq	-336(%rbp), %rax
	movq	%rdx, %rcx
	movl	$8, %edx
	movl	$1, %esi
	movq	%rax, %rdi
	call	fread@PLT
	movq	-576(%rbp), %rdx
	leaq	-544(%rbp), %rax
	movq	%rdx, %rcx
	movl	$8, %edx
	movl	$1, %esi
	movq	%rax, %rdi
	call	fread@PLT
	movq	-576(%rbp), %rax
	movq	%rax, %rdi
	call	emb_read_i32@PLT
	movl	%eax, -24(%rbp)
	movq	-576(%rbp), %rax
	movq	%rax, %rdi
	call	emb_read_i32@PLT
	movl	%eax, -28(%rbp)
	movq	-576(%rbp), %rax
	movq	%rax, %rdi
	call	emb_read_i32@PLT
	movl	%eax, -32(%rbp)
	movl	-32(%rbp), %edx
	movq	-568(%rbp), %rax
	movl	%edx, %esi
	movq	%rax, %rdi
	call	jefSetHoopFromId
	cmpl	$1000000, -28(%rbp)
	jle	.L748
	movl	$1000000, -28(%rbp)
	leaq	.LC214(%rip), %rax
	movq	%rax, %rdi
	call	puts@PLT
	movl	$0, %eax
	jmp	.L764
.L748:
	movl	emb_verbose(%rip), %eax
	cmpl	$1, %eax
	jle	.L750
	movl	-20(%rbp), %eax
	movl	%eax, %esi
	leaq	.LC215(%rip), %rax
	movq	%rax, %rdi
	movl	$0, %eax
	call	printf@PLT
	movl	-24(%rbp), %eax
	movl	%eax, %esi
	leaq	.LC216(%rip), %rax
	movq	%rax, %rdi
	movl	$0, %eax
	call	printf@PLT
	movl	-28(%rbp), %eax
	movl	%eax, %esi
	leaq	.LC217(%rip), %rax
	movq	%rax, %rdi
	movl	$0, %eax
	call	printf@PLT
.L750:
	leaq	-64(%rbp), %rcx
	movq	-576(%rbp), %rax
	leaq	.LC218(%rip), %rdx
	movq	%rcx, %rsi
	movq	%rax, %rdi
	call	read_hoop
	leaq	-80(%rbp), %rcx
	movq	-576(%rbp), %rax
	leaq	.LC219(%rip), %rdx
	movq	%rcx, %rsi
	movq	%rax, %rdi
	call	read_hoop
	leaq	-96(%rbp), %rcx
	movq	-576(%rbp), %rax
	leaq	.LC220(%rip), %rdx
	movq	%rcx, %rsi
	movq	%rax, %rdi
	call	read_hoop
	leaq	-112(%rbp), %rcx
	movq	-576(%rbp), %rax
	leaq	.LC221(%rip), %rdx
	movq	%rcx, %rsi
	movq	%rax, %rdi
	call	read_hoop
	leaq	-128(%rbp), %rcx
	movq	-576(%rbp), %rax
	leaq	.LC222(%rip), %rdx
	movq	%rcx, %rsi
	movq	%rax, %rdi
	call	read_hoop
	movl	$0, -4(%rbp)
	jmp	.L751
.L752:
	movq	-576(%rbp), %rax
	movq	%rax, %rdi
	call	emb_read_i32@PLT
	movl	%eax, -40(%rbp)
	movl	-40(%rbp), %eax
	movslq	%eax, %rdx
	imulq	$1739733589, %rdx, %rdx
	shrq	$32, %rdx
	sarl	$5, %edx
	movl	%eax, %ecx
	sarl	$31, %ecx
	subl	%ecx, %edx
	imull	$79, %edx, %ecx
	subl	%ecx, %eax
	movl	%eax, %edx
	movq	-568(%rbp), %r8
	subq	$8, %rsp
	movslq	%edx, %rax
	imulq	$403, %rax, %rax
	leaq	jef_colors(%rip), %rcx
	subq	$408, %rsp
	movq	%rsp, %rdx
	addq	%rcx, %rax
	movl	$50, %ecx
	movq	%rdx, %rdi
	movq	%rax, %rsi
	rep movsq
	movq	%rsi, %rax
	movq	%rdi, %rdx
	movzwl	(%rax), %ecx
	movw	%cx, (%rdx)
	leaq	2(%rdx), %rdx
	leaq	2(%rax), %rax
	movzbl	(%rax), %ecx
	movb	%cl, (%rdx)
	movq	%r8, %rdi
	call	emb_pattern_addThread@PLT
	addq	$416, %rsp
	addl	$1, -4(%rbp)
.L751:
	movl	-4(%rbp), %eax
	cmpl	-24(%rbp), %eax
	jl	.L752
	movl	-16(%rbp), %eax
	movslq	%eax, %rcx
	movq	-576(%rbp), %rax
	movl	$0, %edx
	movq	%rcx, %rsi
	movq	%rax, %rdi
	call	fseek@PLT
	movl	$0, -8(%rbp)
	jmp	.L753
.L763:
	movb	$0, -33(%rbp)
	movb	$0, -34(%rbp)
	movl	$0, -12(%rbp)
	movq	-576(%rbp), %rdx
	leaq	-546(%rbp), %rax
	movq	%rdx, %rcx
	movl	$2, %edx
	movl	$1, %esi
	movq	%rax, %rdi
	call	fread@PLT
	cmpq	$2, %rax
	jne	.L765
	movzbl	-546(%rbp), %eax
	cmpb	$-128, %al
	jne	.L756
	movzbl	-545(%rbp), %eax
	movzbl	%al, %eax
	andl	$1, %eax
	testl	%eax, %eax
	je	.L757
	movq	-576(%rbp), %rdx
	leaq	-546(%rbp), %rax
	movq	%rdx, %rcx
	movl	$2, %edx
	movl	$1, %esi
	movq	%rax, %rdi
	call	fread@PLT
	cmpq	$2, %rax
	jne	.L766
	movl	$4, -12(%rbp)
	jmp	.L756
.L757:
	movzbl	-545(%rbp), %eax
	cmpb	$2, %al
	je	.L759
	movzbl	-545(%rbp), %eax
	cmpb	$4, %al
	je	.L759
	movzbl	-545(%rbp), %eax
	cmpb	$6, %al
	jne	.L760
.L759:
	movq	-576(%rbp), %rdx
	leaq	-546(%rbp), %rax
	movq	%rdx, %rcx
	movl	$2, %edx
	movl	$1, %esi
	movq	%rax, %rdi
	call	fread@PLT
	cmpq	$2, %rax
	jne	.L767
	movl	$2, -12(%rbp)
	jmp	.L756
.L760:
	movzbl	-545(%rbp), %eax
	cmpb	$16, %al
	jne	.L756
	movq	-568(%rbp), %rax
	movl	$1, %edx
	movl	$16, %esi
	pxor	%xmm1, %xmm1
	movl	.LC17(%rip), %ecx
	movd	%ecx, %xmm0
	movq	%rax, %rdi
	call	emb_pattern_addStitchRel@PLT
	jmp	.L762
.L756:
	movzbl	-546(%rbp), %eax
	movzbl	%al, %eax
	movl	%eax, %edi
	call	jefDecode
	movb	%al, -33(%rbp)
	movzbl	-545(%rbp), %eax
	movzbl	%al, %eax
	movl	%eax, %edi
	call	jefDecode
	movb	%al, -34(%rbp)
	movsbl	-34(%rbp), %eax
	pxor	%xmm0, %xmm0
	cvtsi2sdl	%eax, %xmm0
	movsd	.LC30(%rip), %xmm1
	divsd	%xmm1, %xmm0
	pxor	%xmm2, %xmm2
	cvtsd2ss	%xmm0, %xmm2
	movsbl	-33(%rbp), %eax
	pxor	%xmm0, %xmm0
	cvtsi2sdl	%eax, %xmm0
	movsd	.LC30(%rip), %xmm1
	divsd	%xmm1, %xmm0
	pxor	%xmm3, %xmm3
	cvtsd2ss	%xmm0, %xmm3
	movd	%xmm3, %ecx
	movl	-12(%rbp), %esi
	movq	-568(%rbp), %rax
	movl	$1, %edx
	movaps	%xmm2, %xmm1
	movd	%ecx, %xmm0
	movq	%rax, %rdi
	call	emb_pattern_addStitchRel@PLT
	addl	$1, -8(%rbp)
.L753:
	movl	-28(%rbp), %eax
	addl	$99, %eax
	cmpl	%eax, -8(%rbp)
	jle	.L763
	jmp	.L762
.L765:
	nop
	jmp	.L762
.L766:
	nop
	jmp	.L762
.L767:
	nop
.L762:
	movl	$1, %eax
.L764:
	leave
	.cfi_def_cfa 7, 8
	ret
	.cfi_endproc
.LFE90:
	.size	readJef, .-readJef
	.section	.rodata
	.align 8
.LC223:
	.string	"ERROR: format-jef.c expEncode(), b argument is null"
	.text
	.globl	jefEncode
	.type	jefEncode, @function
jefEncode:
.LFB91:
	.cfi_startproc
	pushq	%rbp
	.cfi_def_cfa_offset 16
	.cfi_offset 6, -16
	movq	%rsp, %rbp
	.cfi_def_cfa_register 6
	subq	$32, %rsp
	movq	%rdi, -8(%rbp)
	movl	%edx, %eax
	movl	%ecx, -20(%rbp)
	movl	%esi, %edx
	movb	%dl, -12(%rbp)
	movb	%al, -16(%rbp)
	cmpq	$0, -8(%rbp)
	jne	.L769
	leaq	.LC223(%rip), %rax
	movq	%rax, %rdi
	call	puts@PLT
	jmp	.L768
.L769:
	cmpl	$4, -20(%rbp)
	jne	.L771
	movq	-8(%rbp), %rax
	movb	$-128, (%rax)
	movq	-8(%rbp), %rax
	addq	$1, %rax
	movb	$1, (%rax)
	movq	-8(%rbp), %rax
	leaq	2(%rax), %rdx
	movzbl	-12(%rbp), %eax
	movb	%al, (%rdx)
	movq	-8(%rbp), %rax
	leaq	3(%rax), %rdx
	movzbl	-16(%rbp), %eax
	movb	%al, (%rdx)
	jmp	.L768
.L771:
	cmpl	$16, -20(%rbp)
	jne	.L772
	movq	-8(%rbp), %rax
	movb	$-128, (%rax)
	movq	-8(%rbp), %rax
	addq	$1, %rax
	movb	$16, (%rax)
	movq	-8(%rbp), %rax
	addq	$2, %rax
	movb	$0, (%rax)
	movq	-8(%rbp), %rax
	addq	$3, %rax
	movb	$0, (%rax)
	jmp	.L768
.L772:
	cmpl	$2, -20(%rbp)
	je	.L773
	cmpl	$1, -20(%rbp)
	jne	.L774
.L773:
	movq	-8(%rbp), %rax
	movb	$-128, (%rax)
	movq	-8(%rbp), %rax
	addq	$1, %rax
	movb	$2, (%rax)
	movq	-8(%rbp), %rax
	leaq	2(%rax), %rdx
	movzbl	-12(%rbp), %eax
	movb	%al, (%rdx)
	movq	-8(%rbp), %rax
	leaq	3(%rax), %rdx
	movzbl	-16(%rbp), %eax
	movb	%al, (%rdx)
	jmp	.L768
.L774:
	movzbl	-12(%rbp), %edx
	movq	-8(%rbp), %rax
	movb	%dl, (%rax)
	movq	-8(%rbp), %rax
	leaq	1(%rax), %rdx
	movzbl	-16(%rbp), %eax
	movb	%al, (%rdx)
.L768:
	leave
	.cfi_def_cfa 7, 8
	ret
	.cfi_endproc
.LFE91:
	.size	jefEncode, .-jefEncode
	.section	.rodata
.LC225:
	.string	"%04d%02d%02d%02d%02d%02d"
	.text
	.globl	writeJef
	.type	writeJef, @function
writeJef:
.LFB92:
	.cfi_startproc
	pushq	%rbp
	.cfi_def_cfa_offset 16
	.cfi_offset 6, -16
	movq	%rsp, %rbp
	.cfi_def_cfa_register 6
	subq	$160, %rsp
	movq	%rdi, -152(%rbp)
	movq	%rsi, -160(%rbp)
	movq	-152(%rbp), %rax
	movss	.LC224(%rip), %xmm1
	movl	.LC224(%rip), %edx
	movd	%edx, %xmm0
	movq	%rax, %rdi
	call	emb_pattern_correctForMaxStitchLength@PLT
	movq	-152(%rbp), %rax
	movq	24(%rax), %rax
	movl	24(%rax), %eax
	movl	%eax, -8(%rbp)
	movl	-8(%rbp), %eax
	movl	$6, %edx
	cmpl	%edx, %eax
	cmovl	%edx, %eax
	movl	%eax, -12(%rbp)
	movl	-12(%rbp), %eax
	addl	$29, %eax
	leal	0(,%rax,4), %edx
	movq	-160(%rbp), %rax
	movl	%edx, %esi
	movq	%rax, %rdi
	call	emb_write_i32@PLT
	movq	-160(%rbp), %rax
	movl	$10, %esi
	movq	%rax, %rdi
	call	emb_write_i32@PLT
	leaq	-112(%rbp), %rax
	movq	%rax, %rdi
	call	embTime_initNow@PLT
	movl	-92(%rbp), %eax
	movl	%eax, %edi
	movl	-96(%rbp), %eax
	movl	%eax, %esi
	movl	-100(%rbp), %eax
	movl	%eax, %r9d
	movl	-104(%rbp), %eax
	movl	%eax, %r8d
	movl	-108(%rbp), %eax
	addl	$1, %eax
	movl	%eax, %ecx
	movl	-112(%rbp), %eax
	addl	$1900, %eax
	movl	%eax, %edx
	movq	-160(%rbp), %rax
	pushq	%rdi
	pushq	%rsi
	leaq	.LC225(%rip), %rsi
	movq	%rax, %rdi
	movl	$0, %eax
	call	fprintf@PLT
	addq	$16, %rsp
	movq	-160(%rbp), %rax
	movl	$2, %edx
	movl	$0, %esi
	movq	%rax, %rdi
	call	fpad@PLT
	movq	-152(%rbp), %rax
	movq	24(%rax), %rax
	movl	24(%rax), %edx
	movq	-160(%rbp), %rax
	movl	%edx, %esi
	movq	%rax, %rdi
	call	emb_write_i32@PLT
	movq	-152(%rbp), %rax
	movq	32(%rax), %rax
	movl	24(%rax), %edx
	movl	$6, %eax
	subl	-8(%rbp), %eax
	testl	%eax, %eax
	js	.L776
	movl	$6, %eax
	subl	-8(%rbp), %eax
	addl	%eax, %eax
	jmp	.L777
.L776:
	movl	$0, %eax
.L777:
	addl	%edx, %eax
	addl	$1, %eax
	movl	%eax, -16(%rbp)
	movl	-16(%rbp), %edx
	movq	-160(%rbp), %rax
	movl	%edx, %esi
	movq	%rax, %rdi
	call	emb_write_i32@PLT
	leaq	-80(%rbp), %rax
	movq	-152(%rbp), %rdx
	movq	%rdx, %rsi
	movq	%rax, %rdi
	call	emb_pattern_bounds@PLT
	movss	-72(%rbp), %xmm0
	movss	%xmm0, -20(%rbp)
	movss	-68(%rbp), %xmm0
	movss	%xmm0, -24(%rbp)
	pxor	%xmm1, %xmm1
	cvtss2sd	-20(%rbp), %xmm1
	movsd	.LC30(%rip), %xmm0
	mulsd	%xmm1, %xmm0
	cvttsd2sil	%xmm0, %eax
	movl	%eax, -28(%rbp)
	pxor	%xmm1, %xmm1
	cvtss2sd	-24(%rbp), %xmm1
	movsd	.LC30(%rip), %xmm0
	mulsd	%xmm1, %xmm0
	cvttsd2sil	%xmm0, %eax
	movl	%eax, -32(%rbp)
	movl	-32(%rbp), %edx
	movl	-28(%rbp), %eax
	movl	%edx, %esi
	movl	%eax, %edi
	call	jefGetHoopSize
	movl	%eax, %edx
	movq	-160(%rbp), %rax
	movl	%edx, %esi
	movq	%rax, %rdi
	call	emb_write_i32@PLT
	movl	-28(%rbp), %eax
	movl	%eax, %edx
	shrl	$31, %edx
	addl	%edx, %eax
	sarl	%eax
	movl	%eax, %edx
	movq	-160(%rbp), %rax
	movl	%edx, %esi
	movq	%rax, %rdi
	call	emb_write_i32@PLT
	movl	-32(%rbp), %eax
	movl	%eax, %edx
	shrl	$31, %edx
	addl	%edx, %eax
	sarl	%eax
	movl	%eax, %edx
	movq	-160(%rbp), %rax
	movl	%edx, %esi
	movq	%rax, %rdi
	call	emb_write_i32@PLT
	movl	-28(%rbp), %eax
	movl	%eax, %edx
	shrl	$31, %edx
	addl	%edx, %eax
	sarl	%eax
	movl	%eax, %edx
	movq	-160(%rbp), %rax
	movl	%edx, %esi
	movq	%rax, %rdi
	call	emb_write_i32@PLT
	movl	-32(%rbp), %eax
	movl	%eax, %edx
	shrl	$31, %edx
	addl	%edx, %eax
	sarl	%eax
	movl	%eax, %edx
	movq	-160(%rbp), %rax
	movl	%edx, %esi
	movq	%rax, %rdi
	call	emb_write_i32@PLT
	movl	-28(%rbp), %eax
	movl	%eax, %edx
	shrl	$31, %edx
	addl	%edx, %eax
	sarl	%eax
	negl	%eax
	movl	%eax, %ecx
	movl	-32(%rbp), %eax
	movl	%eax, %edx
	shrl	$31, %edx
	addl	%edx, %eax
	sarl	%eax
	negl	%eax
	cmpl	%eax, %ecx
	jge	.L778
	cmpl	$1101, -28(%rbp)
	setle	%al
	jmp	.L779
.L778:
	cmpl	$1101, -32(%rbp)
	setle	%al
.L779:
	testb	%al, %al
	je	.L780
	cmpl	$1103, -28(%rbp)
	jg	.L781
	movl	-28(%rbp), %eax
	movl	%eax, %edx
	shrl	$31, %edx
	addl	%edx, %eax
	sarl	%eax
	negl	%eax
	leal	550(%rax), %edx
	jmp	.L782
.L781:
	movl	$-1, %edx
.L782:
	movq	-160(%rbp), %rax
	movl	%edx, %esi
	movq	%rax, %rdi
	call	emb_write_i32@PLT
	cmpl	$1103, -32(%rbp)
	jg	.L783
	movl	-32(%rbp), %eax
	movl	%eax, %edx
	shrl	$31, %edx
	addl	%edx, %eax
	sarl	%eax
	negl	%eax
	leal	550(%rax), %edx
	jmp	.L784
.L783:
	movl	$-1, %edx
.L784:
	movq	-160(%rbp), %rax
	movl	%edx, %esi
	movq	%rax, %rdi
	call	emb_write_i32@PLT
	cmpl	$1103, -28(%rbp)
	jg	.L785
	movl	-28(%rbp), %eax
	movl	%eax, %edx
	shrl	$31, %edx
	addl	%edx, %eax
	sarl	%eax
	negl	%eax
	leal	550(%rax), %edx
	jmp	.L786
.L785:
	movl	$-1, %edx
.L786:
	movq	-160(%rbp), %rax
	movl	%edx, %esi
	movq	%rax, %rdi
	call	emb_write_i32@PLT
	cmpl	$1103, -32(%rbp)
	jg	.L787
	movl	-32(%rbp), %eax
	movl	%eax, %edx
	shrl	$31, %edx
	addl	%edx, %eax
	sarl	%eax
	negl	%eax
	leal	550(%rax), %edx
	jmp	.L788
.L787:
	movl	$-1, %edx
.L788:
	movq	-160(%rbp), %rax
	movl	%edx, %esi
	movq	%rax, %rdi
	call	emb_write_i32@PLT
	jmp	.L789
.L780:
	movq	-160(%rbp), %rax
	movl	$-1, %esi
	movq	%rax, %rdi
	call	emb_write_i32@PLT
	movq	-160(%rbp), %rax
	movl	$-1, %esi
	movq	%rax, %rdi
	call	emb_write_i32@PLT
	movq	-160(%rbp), %rax
	movl	$-1, %esi
	movq	%rax, %rdi
	call	emb_write_i32@PLT
	movq	-160(%rbp), %rax
	movl	$-1, %esi
	movq	%rax, %rdi
	call	emb_write_i32@PLT
.L789:
	movl	-28(%rbp), %eax
	movl	%eax, %edx
	shrl	$31, %edx
	addl	%edx, %eax
	sarl	%eax
	negl	%eax
	movl	%eax, %ecx
	movl	-32(%rbp), %eax
	movl	%eax, %edx
	shrl	$31, %edx
	addl	%edx, %eax
	sarl	%eax
	negl	%eax
	cmpl	%eax, %ecx
	jge	.L790
	cmpl	$501, -28(%rbp)
	setle	%al
	jmp	.L791
.L790:
	cmpl	$501, -32(%rbp)
	setle	%al
.L791:
	testb	%al, %al
	je	.L792
	cmpl	$503, -28(%rbp)
	jg	.L793
	movl	-28(%rbp), %eax
	movl	%eax, %edx
	shrl	$31, %edx
	addl	%edx, %eax
	sarl	%eax
	negl	%eax
	leal	250(%rax), %edx
	jmp	.L794
.L793:
	movl	$-1, %edx
.L794:
	movq	-160(%rbp), %rax
	movl	%edx, %esi
	movq	%rax, %rdi
	call	emb_write_i32@PLT
	cmpl	$503, -32(%rbp)
	jg	.L795
	movl	-32(%rbp), %eax
	movl	%eax, %edx
	shrl	$31, %edx
	addl	%edx, %eax
	sarl	%eax
	negl	%eax
	leal	250(%rax), %edx
	jmp	.L796
.L795:
	movl	$-1, %edx
.L796:
	movq	-160(%rbp), %rax
	movl	%edx, %esi
	movq	%rax, %rdi
	call	emb_write_i32@PLT
	cmpl	$503, -28(%rbp)
	jg	.L797
	movl	-28(%rbp), %eax
	movl	%eax, %edx
	shrl	$31, %edx
	addl	%edx, %eax
	sarl	%eax
	negl	%eax
	leal	250(%rax), %edx
	jmp	.L798
.L797:
	movl	$-1, %edx
.L798:
	movq	-160(%rbp), %rax
	movl	%edx, %esi
	movq	%rax, %rdi
	call	emb_write_i32@PLT
	cmpl	$503, -32(%rbp)
	jg	.L799
	movl	-32(%rbp), %eax
	movl	%eax, %edx
	shrl	$31, %edx
	addl	%edx, %eax
	sarl	%eax
	negl	%eax
	leal	250(%rax), %edx
	jmp	.L800
.L799:
	movl	$-1, %edx
.L800:
	movq	-160(%rbp), %rax
	movl	%edx, %esi
	movq	%rax, %rdi
	call	emb_write_i32@PLT
	jmp	.L801
.L792:
	movq	-160(%rbp), %rax
	movl	$-1, %esi
	movq	%rax, %rdi
	call	emb_write_i32@PLT
	movq	-160(%rbp), %rax
	movl	$-1, %esi
	movq	%rax, %rdi
	call	emb_write_i32@PLT
	movq	-160(%rbp), %rax
	movl	$-1, %esi
	movq	%rax, %rdi
	call	emb_write_i32@PLT
	movq	-160(%rbp), %rax
	movl	$-1, %esi
	movq	%rax, %rdi
	call	emb_write_i32@PLT
.L801:
	movl	-28(%rbp), %eax
	movl	%eax, %edx
	shrl	$31, %edx
	addl	%edx, %eax
	sarl	%eax
	negl	%eax
	leal	700(%rax), %edx
	movq	-160(%rbp), %rax
	movl	%edx, %esi
	movq	%rax, %rdi
	call	emb_write_i32@PLT
	movl	-32(%rbp), %eax
	movl	%eax, %edx
	shrl	$31, %edx
	addl	%edx, %eax
	sarl	%eax
	negl	%eax
	leal	1000(%rax), %edx
	movq	-160(%rbp), %rax
	movl	%edx, %esi
	movq	%rax, %rdi
	call	emb_write_i32@PLT
	movl	-28(%rbp), %eax
	movl	%eax, %edx
	shrl	$31, %edx
	addl	%edx, %eax
	sarl	%eax
	negl	%eax
	leal	700(%rax), %edx
	movq	-160(%rbp), %rax
	movl	%edx, %esi
	movq	%rax, %rdi
	call	emb_write_i32@PLT
	movl	-32(%rbp), %eax
	movl	%eax, %edx
	shrl	$31, %edx
	addl	%edx, %eax
	sarl	%eax
	negl	%eax
	leal	1000(%rax), %edx
	movq	-160(%rbp), %rax
	movl	%edx, %esi
	movq	%rax, %rdi
	call	emb_write_i32@PLT
	movl	-28(%rbp), %eax
	movl	%eax, %edx
	shrl	$31, %edx
	addl	%edx, %eax
	sarl	%eax
	negl	%eax
	leal	630(%rax), %edx
	movq	-160(%rbp), %rax
	movl	%edx, %esi
	movq	%rax, %rdi
	call	emb_write_i32@PLT
	movl	-32(%rbp), %eax
	movl	%eax, %edx
	shrl	$31, %edx
	addl	%edx, %eax
	sarl	%eax
	negl	%eax
	leal	550(%rax), %edx
	movq	-160(%rbp), %rax
	movl	%edx, %esi
	movq	%rax, %rdi
	call	emb_write_i32@PLT
	movl	-28(%rbp), %eax
	movl	%eax, %edx
	shrl	$31, %edx
	addl	%edx, %eax
	sarl	%eax
	negl	%eax
	leal	630(%rax), %edx
	movq	-160(%rbp), %rax
	movl	%edx, %esi
	movq	%rax, %rdi
	call	emb_write_i32@PLT
	movl	-32(%rbp), %eax
	movl	%eax, %edx
	shrl	$31, %edx
	addl	%edx, %eax
	sarl	%eax
	negl	%eax
	leal	550(%rax), %edx
	movq	-160(%rbp), %rax
	movl	%edx, %esi
	movq	%rax, %rdi
	call	emb_write_i32@PLT
	movl	$0, -4(%rbp)
	jmp	.L802
.L803:
	movq	-152(%rbp), %rax
	movq	24(%rax), %rax
	movq	16(%rax), %rdx
	movl	-4(%rbp), %eax
	cltq
	imulq	$403, %rax, %rax
	addq	%rdx, %rax
	movl	$79, %edx
	leaq	jef_colors(%rip), %rcx
	movq	%rcx, %rsi
	movzbl	(%rax), %ecx
	movzbl	1(%rax), %edi
	salq	$8, %rdi
	orq	%rdi, %rcx
	movzbl	2(%rax), %eax
	salq	$16, %rax
	orq	%rcx, %rax
	movq	%rax, %rdi
	call	emb_find_nearest_thread@PLT
	movl	%eax, -44(%rbp)
	movl	-44(%rbp), %edx
	movq	-160(%rbp), %rax
	movl	%edx, %esi
	movq	%rax, %rdi
	call	emb_write_i32@PLT
	addl	$1, -4(%rbp)
.L802:
	movq	-152(%rbp), %rax
	movq	24(%rax), %rax
	movl	24(%rax), %eax
	cmpl	%eax, -4(%rbp)
	jl	.L803
	movl	$0, -4(%rbp)
	jmp	.L804
.L805:
	movl	$13, -40(%rbp)
	movl	-40(%rbp), %edx
	movq	-160(%rbp), %rax
	movl	%edx, %esi
	movq	%rax, %rdi
	call	emb_write_i32@PLT
	addl	$1, -4(%rbp)
.L804:
	movl	-12(%rbp), %eax
	subl	-8(%rbp), %eax
	cmpl	%eax, -4(%rbp)
	jl	.L805
	pxor	%xmm0, %xmm0
	movss	%xmm0, -120(%rbp)
	pxor	%xmm0, %xmm0
	movss	%xmm0, -116(%rbp)
	movl	$0, -4(%rbp)
	jmp	.L806
.L810:
	movb	$0, -124(%rbp)
	movb	$0, -123(%rbp)
	movb	$0, -122(%rbp)
	movb	$0, -121(%rbp)
	movq	-152(%rbp), %rax
	movq	32(%rax), %rax
	movq	8(%rax), %rax
	movl	-4(%rbp), %edx
	movslq	%edx, %rdx
	salq	$4, %rdx
	addq	%rdx, %rax
	movq	8(%rax), %rdx
	movq	(%rax), %rax
	movq	%rax, -144(%rbp)
	movq	%rdx, -136(%rbp)
	movss	-140(%rbp), %xmm0
	movss	-120(%rbp), %xmm2
	movaps	%xmm0, %xmm1
	subss	%xmm2, %xmm1
	movss	.LC18(%rip), %xmm0
	mulss	%xmm0, %xmm1
	movd	%xmm1, %eax
	movd	%eax, %xmm0
	call	emb_round@PLT
	movb	%al, -33(%rbp)
	movss	-136(%rbp), %xmm0
	movss	-116(%rbp), %xmm2
	movaps	%xmm0, %xmm1
	subss	%xmm2, %xmm1
	movss	.LC18(%rip), %xmm0
	mulss	%xmm0, %xmm1
	movd	%xmm1, %eax
	movd	%eax, %xmm0
	call	emb_round@PLT
	movb	%al, -34(%rbp)
	movss	-120(%rbp), %xmm0
	pxor	%xmm1, %xmm1
	cvtss2sd	%xmm0, %xmm1
	movsbl	-33(%rbp), %eax
	pxor	%xmm2, %xmm2
	cvtsi2sdl	%eax, %xmm2
	movsd	.LC20(%rip), %xmm0
	mulsd	%xmm2, %xmm0
	addsd	%xmm1, %xmm0
	cvtsd2ss	%xmm0, %xmm0
	movss	%xmm0, -120(%rbp)
	movss	-116(%rbp), %xmm0
	pxor	%xmm1, %xmm1
	cvtss2sd	%xmm0, %xmm1
	movsbl	-34(%rbp), %eax
	pxor	%xmm2, %xmm2
	cvtsi2sdl	%eax, %xmm2
	movsd	.LC20(%rip), %xmm0
	mulsd	%xmm2, %xmm0
	addsd	%xmm1, %xmm0
	cvtsd2ss	%xmm0, %xmm0
	movss	%xmm0, -116(%rbp)
	movl	-144(%rbp), %ecx
	movsbl	-34(%rbp), %edx
	movsbl	-33(%rbp), %esi
	leaq	-124(%rbp), %rax
	movq	%rax, %rdi
	call	jefEncode
	movzbl	-124(%rbp), %eax
	cmpb	$-128, %al
	jne	.L807
	movzbl	-123(%rbp), %eax
	cmpb	$1, %al
	je	.L808
	movzbl	-123(%rbp), %eax
	cmpb	$2, %al
	je	.L808
	movzbl	-123(%rbp), %eax
	cmpb	$4, %al
	je	.L808
	movzbl	-123(%rbp), %eax
	cmpb	$16, %al
	jne	.L807
.L808:
	movq	-160(%rbp), %rdx
	leaq	-124(%rbp), %rax
	movq	%rdx, %rcx
	movl	$4, %edx
	movl	$1, %esi
	movq	%rax, %rdi
	call	fwrite@PLT
	jmp	.L809
.L807:
	movq	-160(%rbp), %rdx
	leaq	-124(%rbp), %rax
	movq	%rdx, %rcx
	movl	$2, %edx
	movl	$1, %esi
	movq	%rax, %rdi
	call	fwrite@PLT
.L809:
	addl	$1, -4(%rbp)
.L806:
	movq	-152(%rbp), %rax
	movq	32(%rax), %rax
	movl	24(%rax), %eax
	cmpl	%eax, -4(%rbp)
	jl	.L810
	movl	$1, %eax
	leave
	.cfi_def_cfa 7, 8
	ret
	.cfi_endproc
.LFE92:
	.size	writeJef, .-writeJef
	.section	.rodata
	.align 8
.LC226:
	.string	"ERROR: format-ksm.c ksmEncode(), b argument is null"
	.text
	.globl	ksmEncode
	.type	ksmEncode, @function
ksmEncode:
.LFB93:
	.cfi_startproc
	pushq	%rbp
	.cfi_def_cfa_offset 16
	.cfi_offset 6, -16
	movq	%rsp, %rbp
	.cfi_def_cfa_register 6
	subq	$32, %rsp
	movq	%rdi, -8(%rbp)
	movl	%edx, %eax
	movl	%ecx, -20(%rbp)
	movl	%esi, %edx
	movb	%dl, -12(%rbp)
	movb	%al, -16(%rbp)
	cmpq	$0, -8(%rbp)
	jne	.L813
	leaq	.LC226(%rip), %rax
	movq	%rax, %rdi
	call	puts@PLT
	jmp	.L812
.L813:
	cmpl	$2, -20(%rbp)
	jne	.L815
	movq	-8(%rbp), %rax
	movb	$-128, (%rax)
	movq	-8(%rbp), %rax
	addq	$1, %rax
	movb	$2, (%rax)
	movq	-8(%rbp), %rax
	leaq	2(%rax), %rdx
	movzbl	-12(%rbp), %eax
	movb	%al, (%rdx)
	movq	-8(%rbp), %rax
	leaq	3(%rax), %rdx
	movzbl	-16(%rbp), %eax
	movb	%al, (%rdx)
	jmp	.L812
.L815:
	cmpl	$4, -20(%rbp)
	jne	.L816
	movq	-8(%rbp), %rax
	movb	$-128, (%rax)
	movq	-8(%rbp), %rax
	addq	$1, %rax
	movb	$1, (%rax)
	movq	-8(%rbp), %rax
	leaq	2(%rax), %rdx
	movzbl	-12(%rbp), %eax
	movb	%al, (%rdx)
	movq	-8(%rbp), %rax
	leaq	3(%rax), %rdx
	movzbl	-16(%rbp), %eax
	movb	%al, (%rdx)
	jmp	.L812
.L816:
	movzbl	-12(%rbp), %edx
	movq	-8(%rbp), %rax
	movb	%dl, (%rax)
	movq	-8(%rbp), %rax
	leaq	1(%rax), %rdx
	movzbl	-16(%rbp), %eax
	movb	%al, (%rdx)
.L812:
	leave
	.cfi_def_cfa 7, 8
	ret
	.cfi_endproc
.LFE93:
	.size	ksmEncode, .-ksmEncode
	.globl	readKsm
	.type	readKsm, @function
readKsm:
.LFB94:
	.cfi_startproc
	pushq	%rbp
	.cfi_def_cfa_offset 16
	.cfi_offset 6, -16
	movq	%rsp, %rbp
	.cfi_def_cfa_register 6
	subq	$32, %rsp
	movq	%rdi, -24(%rbp)
	movq	%rsi, -32(%rbp)
	movl	$0, -4(%rbp)
	movq	-32(%rbp), %rax
	movl	$0, %edx
	movl	$512, %esi
	movq	%rax, %rdi
	call	fseek@PLT
	jmp	.L818
.L823:
	movl	$0, -8(%rbp)
	movl	-4(%rbp), %eax
	andl	$8, %eax
	testl	%eax, %eax
	je	.L819
	movzbl	-9(%rbp), %eax
	movsbl	%al, %eax
	andl	$8, %eax
	testl	%eax, %eax
	je	.L819
	movl	$4, -8(%rbp)
	jmp	.L820
.L819:
	movzbl	-9(%rbp), %eax
	movsbl	%al, %eax
	andl	$31, %eax
	testl	%eax, %eax
	je	.L820
	movl	$2, -8(%rbp)
.L820:
	movzbl	-9(%rbp), %eax
	movsbl	%al, %eax
	movl	%eax, -4(%rbp)
	movzbl	-9(%rbp), %eax
	movsbl	%al, %eax
	andl	$64, %eax
	testl	%eax, %eax
	je	.L821
	movzbl	-10(%rbp), %eax
	negl	%eax
	movb	%al, -10(%rbp)
.L821:
	movzbl	-9(%rbp), %eax
	movsbl	%al, %eax
	andl	$32, %eax
	testl	%eax, %eax
	je	.L822
	movzbl	-11(%rbp), %eax
	negl	%eax
	movb	%al, -11(%rbp)
.L822:
	movzbl	-11(%rbp), %eax
	movsbl	%al, %eax
	pxor	%xmm0, %xmm0
	cvtsi2sdl	%eax, %xmm0
	movsd	.LC30(%rip), %xmm1
	divsd	%xmm1, %xmm0
	pxor	%xmm2, %xmm2
	cvtsd2ss	%xmm0, %xmm2
	movzbl	-10(%rbp), %eax
	movsbl	%al, %eax
	pxor	%xmm0, %xmm0
	cvtsi2sdl	%eax, %xmm0
	movsd	.LC30(%rip), %xmm1
	divsd	%xmm1, %xmm0
	pxor	%xmm3, %xmm3
	cvtsd2ss	%xmm0, %xmm3
	movd	%xmm3, %ecx
	movl	-8(%rbp), %esi
	movq	-24(%rbp), %rax
	movl	$1, %edx
	movaps	%xmm2, %xmm1
	movd	%ecx, %xmm0
	movq	%rax, %rdi
	call	emb_pattern_addStitchRel@PLT
.L818:
	movq	-32(%rbp), %rdx
	leaq	-11(%rbp), %rax
	movq	%rdx, %rcx
	movl	$3, %edx
	movl	$1, %esi
	movq	%rax, %rdi
	call	fread@PLT
	cmpq	$3, %rax
	je	.L823
	movl	$1, %eax
	leave
	.cfi_def_cfa 7, 8
	ret
	.cfi_endproc
.LFE94:
	.size	readKsm, .-readKsm
	.section	.rodata
.LC227:
	.string	"%c%c"
	.text
	.globl	writeKsm
	.type	writeKsm, @function
writeKsm:
.LFB95:
	.cfi_startproc
	pushq	%rbp
	.cfi_def_cfa_offset 16
	.cfi_offset 6, -16
	movq	%rsp, %rbp
	.cfi_def_cfa_register 6
	subq	$64, %rsp
	movq	%rdi, -56(%rbp)
	movq	%rsi, -64(%rbp)
	movq	-64(%rbp), %rax
	movl	$512, %edx
	movl	$0, %esi
	movq	%rax, %rdi
	call	fpad@PLT
	pxor	%xmm0, %xmm0
	movss	%xmm0, -16(%rbp)
	pxor	%xmm0, %xmm0
	movss	%xmm0, -12(%rbp)
	movl	$0, -4(%rbp)
	jmp	.L826
.L827:
	movq	-56(%rbp), %rax
	movq	32(%rax), %rax
	movq	8(%rax), %rax
	movl	-4(%rbp), %edx
	movslq	%edx, %rdx
	salq	$4, %rdx
	addq	%rdx, %rax
	movq	8(%rax), %rdx
	movq	(%rax), %rax
	movq	%rax, -48(%rbp)
	movq	%rdx, -40(%rbp)
	movss	-44(%rbp), %xmm0
	movss	-16(%rbp), %xmm1
	subss	%xmm1, %xmm0
	pxor	%xmm1, %xmm1
	cvtss2sd	%xmm0, %xmm1
	movsd	.LC30(%rip), %xmm0
	mulsd	%xmm1, %xmm0
	cvttsd2sil	%xmm0, %eax
	movb	%al, -5(%rbp)
	movss	-40(%rbp), %xmm0
	movss	-12(%rbp), %xmm1
	subss	%xmm1, %xmm0
	pxor	%xmm1, %xmm1
	cvtss2sd	%xmm0, %xmm1
	movsd	.LC30(%rip), %xmm0
	mulsd	%xmm1, %xmm0
	cvttsd2sil	%xmm0, %eax
	movb	%al, -6(%rbp)
	movss	-16(%rbp), %xmm0
	pxor	%xmm1, %xmm1
	cvtss2sd	%xmm0, %xmm1
	movsbl	-5(%rbp), %eax
	pxor	%xmm2, %xmm2
	cvtsi2sdl	%eax, %xmm2
	movsd	.LC20(%rip), %xmm0
	mulsd	%xmm2, %xmm0
	addsd	%xmm1, %xmm0
	cvtsd2ss	%xmm0, %xmm0
	movss	%xmm0, -16(%rbp)
	movss	-12(%rbp), %xmm0
	pxor	%xmm1, %xmm1
	cvtss2sd	%xmm0, %xmm1
	movsbl	-6(%rbp), %eax
	pxor	%xmm2, %xmm2
	cvtsi2sdl	%eax, %xmm2
	movsd	.LC20(%rip), %xmm0
	mulsd	%xmm2, %xmm0
	addsd	%xmm1, %xmm0
	cvtsd2ss	%xmm0, %xmm0
	movss	%xmm0, -12(%rbp)
	movl	-48(%rbp), %ecx
	movsbl	-6(%rbp), %edx
	movsbl	-5(%rbp), %esi
	leaq	-20(%rbp), %rax
	movq	%rax, %rdi
	call	ksmEncode
	movzbl	-19(%rbp), %eax
	movzbl	%al, %ecx
	movzbl	-20(%rbp), %eax
	movzbl	%al, %edx
	movq	-64(%rbp), %rax
	leaq	.LC227(%rip), %rsi
	movq	%rax, %rdi
	movl	$0, %eax
	call	fprintf@PLT
	addl	$1, -4(%rbp)
.L826:
	movq	-56(%rbp), %rax
	movq	32(%rax), %rax
	movl	24(%rax), %eax
	cmpl	%eax, -4(%rbp)
	jl	.L827
	movq	-64(%rbp), %rax
	movq	%rax, %rsi
	movl	$26, %edi
	call	fputc@PLT
	movl	$1, %eax
	leave
	.cfi_def_cfa 7, 8
	ret
	.cfi_endproc
.LFE95:
	.size	writeKsm, .-writeKsm
	.globl	max_header
	.section	.rodata
	.align 32
	.type	max_header, @object
	.size	max_header, 213
max_header:
	.string	"VCSM\374\003"
	.string	""
	.string	"\001"
	.string	""
	.string	""
	.string	"\001"
	.string	""
	.string	""
	.string	"\366%"
	.string	""
	.string	""
	.string	""
	.string	""
	.string	""
	.string	""
	.string	""
	.string	""
	.string	""
	.string	""
	.string	""
	.string	""
	.string	""
	.string	""
	.string	""
	.string	""
	.string	""
	.string	""
	.string	""
	.string	""
	.string	""
	.string	""
	.string	""
	.string	""
	.string	""
	.string	""
	.string	""
	.string	""
	.string	""
	.string	""
	.string	""
	.string	""
	.string	""
	.string	""
	.string	""
	.string	""
	.string	""
	.string	"\b"
	.string	""
	.string	""
	.string	"\005"
	.string	""
	.string	""
	.string	""
	.string	""
	.string	""
	.string	""
	.string	"\001"
	.string	""
	.string	""
	.string	""
	.string	""
	.string	""
	.string	""
	.string	""
	.string	""
	.string	""
	.string	""
	.string	""
	.string	""
	.string	""
	.string	""
	.string	""
	.string	""
	.string	""
	.string	""
	.string	""
	.string	""
	.string	""
	.string	""
	.string	""
	.string	""
	.string	""
	.string	""
	.string	""
	.string	""
	.string	""
	.string	""
	.string	""
	.string	""
	.string	""
	.string	""
	.string	""
	.string	""
	.string	""
	.string	""
	.string	"1378"
	.string	""
	.string	""
	.string	""
	.string	""
	.string	""
	.string	""
	.string	""
	.string	""
	.string	""
	.string	""
	.string	""
	.string	""
	.string	""
	.string	""
	.string	""
	.string	""
	.string	""
	.string	""
	.string	""
	.string	""
	.string	""
	.string	""
	.string	""
	.string	""
	.string	""
	.string	""
	.string	""
	.string	""
	.string	""
	.string	""
	.string	""
	.string	""
	.string	""
	.string	""
	.string	""
	.string	""
	.string	""
	.string	""
	.string	""
	.string	"Madeira Rayon 40"
	.string	""
	.string	""
	.string	""
	.string	""
	.string	""
	.string	""
	.string	""
	.string	""
	.string	""
	.string	""
	.string	""
	.string	""
	.string	""
	.string	""
	.string	""
	.string	""
	.string	""
	.string	""
	.string	""
	.string	""
	.string	""
	.string	""
	.string	""
	.string	"\0018\t130/705 H\372"
	.string	""
	.string	""
	.string	""
	.string	""
	.string	""
	.string	""
	.string	""
	.text
	.globl	readMax
	.type	readMax, @function
readMax:
.LFB96:
	.cfi_startproc
	pushq	%rbp
	.cfi_def_cfa_offset 16
	.cfi_offset 6, -16
	movq	%rsp, %rbp
	.cfi_def_cfa_register 6
	subq	$48, %rsp
	movq	%rdi, -40(%rbp)
	movq	%rsi, -48(%rbp)
	movq	-48(%rbp), %rax
	movl	$0, %edx
	movl	$213, %esi
	movq	%rax, %rdi
	call	fseek@PLT
	jmp	.L830
.L831:
	movl	$0, -4(%rbp)
	movzbl	-18(%rbp), %eax
	movzbl	%al, %edx
	movzbl	-19(%rbp), %eax
	movzbl	%al, %ecx
	movzbl	-20(%rbp), %eax
	movzbl	%al, %eax
	movl	%ecx, %esi
	movl	%eax, %edi
	call	pfaffDecode@PLT
	movd	%xmm0, %eax
	movl	%eax, -8(%rbp)
	movzbl	-14(%rbp), %eax
	movzbl	%al, %edx
	movzbl	-15(%rbp), %eax
	movzbl	%al, %ecx
	movzbl	-16(%rbp), %eax
	movzbl	%al, %eax
	movl	%ecx, %esi
	movl	%eax, %edi
	call	pfaffDecode@PLT
	movd	%xmm0, %eax
	movl	%eax, -12(%rbp)
	movss	-12(%rbp), %xmm0
	movss	.LC18(%rip), %xmm1
	movaps	%xmm0, %xmm2
	divss	%xmm1, %xmm2
	movss	-8(%rbp), %xmm0
	movss	.LC18(%rip), %xmm1
	divss	%xmm1, %xmm0
	movd	%xmm0, %ecx
	movl	-4(%rbp), %esi
	movq	-40(%rbp), %rax
	movl	$1, %edx
	movaps	%xmm2, %xmm1
	movd	%ecx, %xmm0
	movq	%rax, %rdi
	call	emb_pattern_addStitchAbs@PLT
.L830:
	movq	-48(%rbp), %rdx
	leaq	-20(%rbp), %rax
	movq	%rdx, %rcx
	movl	$8, %edx
	movl	$1, %esi
	movq	%rax, %rdi
	call	fread@PLT
	cmpq	$8, %rax
	je	.L831
	movq	-40(%rbp), %rax
	movq	%rax, %rdi
	call	emb_pattern_flipVertical@PLT
	movl	$1, %eax
	leave
	.cfi_def_cfa 7, 8
	ret
	.cfi_endproc
.LFE96:
	.size	readMax, .-readMax
	.globl	writeMax
	.type	writeMax, @function
writeMax:
.LFB97:
	.cfi_startproc
	pushq	%rbp
	.cfi_def_cfa_offset 16
	.cfi_offset 6, -16
	movq	%rsp, %rbp
	.cfi_def_cfa_register 6
	subq	$48, %rsp
	movq	%rdi, -40(%rbp)
	movq	%rsi, -48(%rbp)
	movq	-48(%rbp), %rax
	movq	%rax, %rcx
	movl	$213, %edx
	movl	$1, %esi
	leaq	max_header(%rip), %rax
	movq	%rax, %rdi
	call	fwrite@PLT
	movl	$0, -4(%rbp)
	jmp	.L834
.L835:
	movq	-40(%rbp), %rax
	movq	32(%rax), %rax
	movq	8(%rax), %rax
	movl	-4(%rbp), %edx
	movslq	%edx, %rdx
	salq	$4, %rdx
	addq	%rdx, %rax
	movq	8(%rax), %rdx
	movq	(%rax), %rax
	movq	%rax, -32(%rbp)
	movq	%rdx, -24(%rbp)
	movss	-28(%rbp), %xmm1
	movss	.LC18(%rip), %xmm0
	mulss	%xmm0, %xmm1
	movd	%xmm1, %eax
	movd	%eax, %xmm0
	call	emb_round@PLT
	pxor	%xmm0, %xmm0
	cvtsi2ssl	%eax, %xmm0
	movss	%xmm0, -8(%rbp)
	movss	-24(%rbp), %xmm1
	movss	.LC18(%rip), %xmm0
	mulss	%xmm0, %xmm1
	movd	%xmm1, %eax
	movd	%eax, %xmm0
	call	emb_round@PLT
	pxor	%xmm0, %xmm0
	cvtsi2ssl	%eax, %xmm0
	movss	%xmm0, -12(%rbp)
	movss	-8(%rbp), %xmm0
	cvttss2sil	%xmm0, %edx
	movq	-48(%rbp), %rax
	movl	%edx, %esi
	movq	%rax, %rdi
	call	write_24bit@PLT
	movss	-12(%rbp), %xmm0
	cvttss2sil	%xmm0, %edx
	movq	-48(%rbp), %rax
	movl	%edx, %esi
	movq	%rax, %rdi
	call	write_24bit@PLT
	addl	$1, -4(%rbp)
.L834:
	movq	-40(%rbp), %rax
	movq	32(%rax), %rax
	movl	24(%rax), %eax
	cmpl	%eax, -4(%rbp)
	jl	.L835
	movl	$1, %eax
	leave
	.cfi_def_cfa 7, 8
	ret
	.cfi_endproc
.LFE97:
	.size	writeMax, .-writeMax
	.globl	readMit
	.type	readMit, @function
readMit:
.LFB98:
	.cfi_startproc
	pushq	%rbp
	.cfi_def_cfa_offset 16
	.cfi_offset 6, -16
	movq	%rsp, %rbp
	.cfi_def_cfa_register 6
	subq	$32, %rsp
	movq	%rdi, -24(%rbp)
	movq	%rsi, -32(%rbp)
	jmp	.L838
.L839:
	movzbl	-10(%rbp), %eax
	movzbl	%al, %eax
	movl	%eax, %edi
	call	mitDecodeStitch@PLT
	movl	%eax, -4(%rbp)
	movzbl	-9(%rbp), %eax
	movzbl	%al, %eax
	movl	%eax, %edi
	call	mitDecodeStitch@PLT
	movl	%eax, -8(%rbp)
	pxor	%xmm0, %xmm0
	cvtsi2sdl	-8(%rbp), %xmm0
	movsd	.LC30(%rip), %xmm1
	divsd	%xmm1, %xmm0
	pxor	%xmm2, %xmm2
	cvtsd2ss	%xmm0, %xmm2
	pxor	%xmm0, %xmm0
	cvtsi2sdl	-4(%rbp), %xmm0
	movsd	.LC30(%rip), %xmm1
	divsd	%xmm1, %xmm0
	pxor	%xmm3, %xmm3
	cvtsd2ss	%xmm0, %xmm3
	movd	%xmm3, %ecx
	movq	-24(%rbp), %rax
	movl	$1, %edx
	movl	$0, %esi
	movaps	%xmm2, %xmm1
	movd	%ecx, %xmm0
	movq	%rax, %rdi
	call	emb_pattern_addStitchRel@PLT
.L838:
	movq	-32(%rbp), %rdx
	leaq	-10(%rbp), %rax
	movq	%rdx, %rcx
	movl	$2, %edx
	movl	$1, %esi
	movq	%rax, %rdi
	call	fread@PLT
	cmpq	$2, %rax
	je	.L839
	movl	$1, %eax
	leave
	.cfi_def_cfa 7, 8
	ret
	.cfi_endproc
.LFE98:
	.size	readMit, .-readMit
	.globl	writeMit
	.type	writeMit, @function
writeMit:
.LFB99:
	.cfi_startproc
	pushq	%rbp
	.cfi_def_cfa_offset 16
	.cfi_offset 6, -16
	movq	%rsp, %rbp
	.cfi_def_cfa_register 6
	subq	$48, %rsp
	movq	%rdi, -40(%rbp)
	movq	%rsi, -48(%rbp)
	movq	-40(%rbp), %rax
	movss	.LC228(%rip), %xmm1
	movl	.LC228(%rip), %edx
	movd	%edx, %xmm0
	movq	%rax, %rdi
	call	emb_pattern_correctForMaxStitchLength@PLT
	pxor	%xmm0, %xmm0
	movss	%xmm0, -4(%rbp)
	pxor	%xmm0, %xmm0
	movss	%xmm0, -8(%rbp)
	movl	$0, -12(%rbp)
	jmp	.L842
.L843:
	movq	-40(%rbp), %rax
	movq	32(%rax), %rax
	movq	8(%rax), %rax
	movl	-12(%rbp), %edx
	movslq	%edx, %rdx
	salq	$4, %rdx
	addq	%rdx, %rax
	movq	8(%rax), %rdx
	movq	(%rax), %rax
	movq	%rax, -32(%rbp)
	movq	%rdx, -24(%rbp)
	movss	-28(%rbp), %xmm0
	subss	-4(%rbp), %xmm0
	movd	%xmm0, %eax
	movd	%eax, %xmm0
	call	mitEncodeStitch@PLT
	movb	%al, -14(%rbp)
	movss	-24(%rbp), %xmm0
	subss	-8(%rbp), %xmm0
	movd	%xmm0, %eax
	movd	%eax, %xmm0
	call	mitEncodeStitch@PLT
	movb	%al, -13(%rbp)
	movss	-28(%rbp), %xmm0
	movss	%xmm0, -4(%rbp)
	movss	-24(%rbp), %xmm0
	movss	%xmm0, -8(%rbp)
	movq	-48(%rbp), %rdx
	leaq	-14(%rbp), %rax
	movq	%rdx, %rcx
	movl	$2, %edx
	movl	$1, %esi
	movq	%rax, %rdi
	call	fwrite@PLT
	addl	$1, -12(%rbp)
.L842:
	movq	-40(%rbp), %rax
	movq	32(%rax), %rax
	movl	24(%rax), %eax
	cmpl	%eax, -12(%rbp)
	jl	.L843
	movl	$1, %eax
	leave
	.cfi_def_cfa 7, 8
	ret
	.cfi_endproc
.LFE99:
	.size	writeMit, .-writeMit
	.globl	readNew
	.type	readNew, @function
readNew:
.LFB100:
	.cfi_startproc
	pushq	%rbp
	.cfi_def_cfa_offset 16
	.cfi_offset 6, -16
	movq	%rsp, %rbp
	.cfi_def_cfa_register 6
	subq	$48, %rsp
	movq	%rdi, -40(%rbp)
	movq	%rsi, -48(%rbp)
	movq	-48(%rbp), %rax
	movq	%rax, %rdi
	call	emb_read_i16@PLT
	cwtl
	movl	%eax, -16(%rbp)
	movl	emb_verbose(%rip), %eax
	cmpl	$1, %eax
	jle	.L847
	movl	-16(%rbp), %eax
	movl	%eax, %esi
	leaq	.LC190(%rip), %rax
	movq	%rax, %rdi
	movl	$0, %eax
	call	printf@PLT
	jmp	.L847
.L853:
	movzbl	-20(%rbp), %eax
	movzbl	%al, %eax
	movl	%eax, %edi
	call	decodeNewStitch@PLT
	movl	%eax, -4(%rbp)
	movzbl	-19(%rbp), %eax
	movzbl	%al, %eax
	movl	%eax, %edi
	call	decodeNewStitch@PLT
	movl	%eax, -8(%rbp)
	movl	$0, -12(%rbp)
	movzbl	-18(%rbp), %eax
	movb	%al, -17(%rbp)
	movzbl	-18(%rbp), %eax
	movzbl	%al, %eax
	andl	$64, %eax
	testl	%eax, %eax
	je	.L848
	negl	-4(%rbp)
.L848:
	movzbl	-18(%rbp), %eax
	movzbl	%al, %eax
	andl	$32, %eax
	testl	%eax, %eax
	je	.L849
	negl	-8(%rbp)
.L849:
	movzbl	-18(%rbp), %eax
	movzbl	%al, %eax
	andl	$16, %eax
	testl	%eax, %eax
	je	.L850
	movl	$2, -12(%rbp)
.L850:
	movzbl	-18(%rbp), %eax
	movzbl	%al, %eax
	andl	$1, %eax
	testl	%eax, %eax
	je	.L851
	movl	$1, -12(%rbp)
.L851:
	movsbl	-17(%rbp), %eax
	andl	$30, %eax
	cmpl	$2, %eax
	jne	.L852
	movl	$4, -12(%rbp)
.L852:
	pxor	%xmm0, %xmm0
	cvtsi2sdl	-8(%rbp), %xmm0
	movsd	.LC30(%rip), %xmm1
	divsd	%xmm1, %xmm0
	pxor	%xmm2, %xmm2
	cvtsd2ss	%xmm0, %xmm2
	pxor	%xmm0, %xmm0
	cvtsi2sdl	-4(%rbp), %xmm0
	movsd	.LC30(%rip), %xmm1
	divsd	%xmm1, %xmm0
	pxor	%xmm3, %xmm3
	cvtsd2ss	%xmm0, %xmm3
	movd	%xmm3, %ecx
	movl	-12(%rbp), %esi
	movq	-40(%rbp), %rax
	movl	$1, %edx
	movaps	%xmm2, %xmm1
	movd	%ecx, %xmm0
	movq	%rax, %rdi
	call	emb_pattern_addStitchRel@PLT
.L847:
	movq	-48(%rbp), %rdx
	leaq	-20(%rbp), %rax
	movq	%rdx, %rcx
	movl	$3, %edx
	movl	$1, %esi
	movq	%rax, %rdi
	call	fread@PLT
	cmpq	$3, %rax
	je	.L853
	movl	$1, %eax
	leave
	.cfi_def_cfa 7, 8
	ret
	.cfi_endproc
.LFE100:
	.size	readNew, .-readNew
	.globl	writeNew
	.type	writeNew, @function
writeNew:
.LFB101:
	.cfi_startproc
	pushq	%rbp
	.cfi_def_cfa_offset 16
	.cfi_offset 6, -16
	movq	%rsp, %rbp
	.cfi_def_cfa_register 6
	subq	$16, %rsp
	movq	%rdi, -8(%rbp)
	movq	%rsi, -16(%rbp)
	leaq	.LC42(%rip), %rax
	movq	%rax, %rdi
	call	puts@PLT
	movq	-16(%rbp), %rdx
	movq	-8(%rbp), %rax
	movq	%rdx, %rsi
	movq	%rax, %rdi
	call	writeDst
	movl	$0, %eax
	leave
	.cfi_def_cfa 7, 8
	ret
	.cfi_endproc
.LFE101:
	.size	writeNew, .-writeNew
	.section	.rodata
	.align 8
.LC229:
	.string	"ERROR: format-ofm.c ofmReadLibrary(), file argument is null"
	.align 8
.LC230:
	.string	"ERROR: format-ofm.c ofmReadLibrary(), unable to allocate memory for libraryName"
	.text
	.globl	ofmReadLibrary
	.type	ofmReadLibrary, @function
ofmReadLibrary:
.LFB102:
	.cfi_startproc
	pushq	%rbp
	.cfi_def_cfa_offset 16
	.cfi_offset 6, -16
	movq	%rsp, %rbp
	.cfi_def_cfa_register 6
	subq	$48, %rsp
	movq	%rdi, -40(%rbp)
	movl	$0, -4(%rbp)
	movq	$0, -16(%rbp)
	cmpq	$0, -40(%rbp)
	jne	.L858
	leaq	.LC229(%rip), %rax
	movq	%rax, %rdi
	call	puts@PLT
	movl	$0, %eax
	jmp	.L861
.L858:
	movq	-40(%rbp), %rdx
	leaq	-19(%rbp), %rax
	movq	%rdx, %rcx
	movl	$3, %edx
	movl	$1, %esi
	movq	%rax, %rdi
	call	fread@PLT
	movq	-40(%rbp), %rdx
	leaq	-20(%rbp), %rax
	movq	%rdx, %rcx
	movl	$1, %edx
	movl	$1, %esi
	movq	%rax, %rdi
	call	fread@PLT
	movzbl	-20(%rbp), %eax
	movzbl	%al, %eax
	movl	%eax, -4(%rbp)
	movl	-4(%rbp), %eax
	cltq
	addq	%rax, %rax
	movq	%rax, %rdi
	call	malloc@PLT
	movq	%rax, -16(%rbp)
	cmpq	$0, -16(%rbp)
	jne	.L860
	leaq	.LC230(%rip), %rax
	movq	%rax, %rdi
	call	puts@PLT
	movl	$0, %eax
	jmp	.L861
.L860:
	movl	-4(%rbp), %eax
	addl	%eax, %eax
	movslq	%eax, %rdx
	movq	-40(%rbp), %rcx
	movq	-16(%rbp), %rax
	movl	$1, %esi
	movq	%rax, %rdi
	call	fread@PLT
	movq	-16(%rbp), %rax
.L861:
	leave
	.cfi_def_cfa 7, 8
	ret
	.cfi_endproc
.LFE102:
	.size	ofmReadLibrary, .-ofmReadLibrary
	.section	.rodata
	.align 8
.LC231:
	.string	"ERROR: format-ofm.c ofmReadClass(), file argument is null"
.LC232:
	.string	"CExpStitch"
.LC233:
	.string	"CColorChange"
	.text
	.type	ofmReadClass, @function
ofmReadClass:
.LFB103:
	.cfi_startproc
	pushq	%rbp
	.cfi_def_cfa_offset 16
	.cfi_offset 6, -16
	movq	%rsp, %rbp
	.cfi_def_cfa_register 6
	subq	$224, %rsp
	movq	%rdi, -216(%rbp)
	cmpq	$0, -216(%rbp)
	jne	.L863
	leaq	.LC231(%rip), %rax
	movq	%rax, %rdi
	call	puts@PLT
	movl	$0, %eax
	jmp	.L867
.L863:
	movq	-216(%rbp), %rax
	movq	%rax, %rdi
	call	emb_read_i16@PLT
	movq	-216(%rbp), %rax
	movq	%rax, %rdi
	call	emb_read_i16@PLT
	cwtl
	movl	%eax, -4(%rbp)
	movl	-4(%rbp), %eax
	movslq	%eax, %rdx
	movq	-216(%rbp), %rcx
	leaq	-208(%rbp), %rax
	movl	$1, %esi
	movq	%rax, %rdi
	call	fread@PLT
	movl	-4(%rbp), %eax
	cltq
	movb	$0, -208(%rbp,%rax)
	leaq	-208(%rbp), %rax
	leaq	.LC232(%rip), %rdx
	movq	%rdx, %rsi
	movq	%rax, %rdi
	call	strcmp@PLT
	testl	%eax, %eax
	jne	.L865
	movl	$32924, %eax
	jmp	.L867
.L865:
	leaq	-208(%rbp), %rax
	leaq	.LC233(%rip), %rdx
	movq	%rdx, %rsi
	movq	%rax, %rdi
	call	strcmp@PLT
	testl	%eax, %eax
	jne	.L866
	movl	$65535, %eax
	jmp	.L867
.L866:
	movl	$0, %eax
.L867:
	leave
	.cfi_def_cfa 7, 8
	ret
	.cfi_endproc
.LFE103:
	.size	ofmReadClass, .-ofmReadClass
	.section	.rodata
	.align 8
.LC234:
	.string	"ERROR: format-ofm.c ofmReadBlockHeader(), file argument is null"
.LC235:
	.string	"unknown1: %d\n"
	.align 8
.LC236:
	.string	"ERROR: format-ofm.c ofmReadBlockHeader(), unable to allocate memory for s"
.LC237:
	.string	"%d"
.LC238:
	.string	"short1: %d\n"
	.text
	.globl	ofmReadBlockHeader
	.type	ofmReadBlockHeader, @function
ofmReadBlockHeader:
.LFB104:
	.cfi_startproc
	pushq	%rbp
	.cfi_def_cfa_offset 16
	.cfi_offset 6, -16
	movq	%rsp, %rbp
	.cfi_def_cfa_register 6
	subq	$96, %rsp
	movq	%rdi, -88(%rbp)
	movq	$0, -16(%rbp)
	cmpq	$0, -88(%rbp)
	jne	.L869
	leaq	.LC234(%rip), %rax
	movq	%rax, %rdi
	call	puts@PLT
	jmp	.L868
.L869:
	movq	-88(%rbp), %rax
	movq	%rax, %rdi
	call	emb_read_i16@PLT
	movw	%ax, -18(%rbp)
	movl	emb_verbose(%rip), %eax
	cmpl	$1, %eax
	jle	.L871
	movswl	-18(%rbp), %eax
	movl	%eax, %esi
	leaq	.LC235(%rip), %rax
	movq	%rax, %rdi
	movl	$0, %eax
	call	printf@PLT
.L871:
	movq	-88(%rbp), %rax
	movq	%rax, %rdi
	call	emb_read_i32@PLT
	movl	%eax, -24(%rbp)
	movl	emb_verbose(%rip), %eax
	cmpl	$1, %eax
	jle	.L872
	movl	-24(%rbp), %eax
	movl	%eax, %esi
	leaq	.LC195(%rip), %rax
	movq	%rax, %rdi
	movl	$0, %eax
	call	printf@PLT
.L872:
	movq	-88(%rbp), %rax
	movq	%rax, %rdi
	call	emb_read_i32@PLT
	movl	%eax, -28(%rbp)
	movl	emb_verbose(%rip), %eax
	cmpl	$1, %eax
	jle	.L873
	movl	-28(%rbp), %eax
	movl	%eax, %esi
	leaq	.LC194(%rip), %rax
	movq	%rax, %rdi
	movl	$0, %eax
	call	printf@PLT
.L873:
	movq	-88(%rbp), %rax
	movq	%rax, %rdi
	call	emb_read_i16@PLT
	movq	-88(%rbp), %rax
	movl	$1, %edx
	movl	$1, %esi
	movq	%rax, %rdi
	call	fseek@PLT
	movq	-88(%rbp), %rax
	movq	%rax, %rdi
	call	fgetc@PLT
	movb	%al, -29(%rbp)
	movzbl	-29(%rbp), %eax
	addl	%eax, %eax
	cltq
	movq	%rax, %rdi
	call	malloc@PLT
	movq	%rax, -16(%rbp)
	cmpq	$0, -16(%rbp)
	jne	.L874
	leaq	.LC236(%rip), %rax
	movq	%rax, %rdi
	call	puts@PLT
	jmp	.L868
.L874:
	movzbl	-29(%rbp), %eax
	addl	%eax, %eax
	movslq	%eax, %rdx
	movq	-88(%rbp), %rcx
	movq	-16(%rbp), %rax
	movl	$1, %esi
	movq	%rax, %rdi
	call	fread@PLT
	movl	$0, -4(%rbp)
	jmp	.L875
.L876:
	movq	-88(%rbp), %rax
	movq	%rax, %rdi
	call	emb_read_i32@PLT
	movl	-4(%rbp), %edx
	movslq	%edx, %rdx
	movl	%eax, -80(%rbp,%rdx,4)
	movl	-4(%rbp), %eax
	cltq
	movl	-80(%rbp,%rax,4), %eax
	movl	%eax, %esi
	leaq	.LC237(%rip), %rax
	movq	%rax, %rdi
	movl	$0, %eax
	call	printf@PLT
	addl	$1, -4(%rbp)
.L875:
	cmpl	$9, -4(%rbp)
	jle	.L876
	movq	-88(%rbp), %rax
	movq	%rax, %rdi
	call	emb_read_i16@PLT
	movw	%ax, -32(%rbp)
	movl	emb_verbose(%rip), %eax
	cmpl	$1, %eax
	jle	.L868
	movzwl	-32(%rbp), %eax
	movl	%eax, %esi
	leaq	.LC238(%rip), %rax
	movq	%rax, %rdi
	movl	$0, %eax
	call	printf@PLT
.L868:
	leave
	.cfi_def_cfa 7, 8
	ret
	.cfi_endproc
.LFE104:
	.size	ofmReadBlockHeader, .-ofmReadBlockHeader
	.section	.rodata
	.align 8
.LC239:
	.string	"ERROR: format-ofm.c ofmReadColorChange(), file argument is null"
	.align 8
.LC240:
	.string	"ERROR: format-ofm.c ofmReadColorChange(), pattern argument is null"
	.text
	.globl	ofmReadColorChange
	.type	ofmReadColorChange, @function
ofmReadColorChange:
.LFB105:
	.cfi_startproc
	pushq	%rbp
	.cfi_def_cfa_offset 16
	.cfi_offset 6, -16
	movq	%rsp, %rbp
	.cfi_def_cfa_register 6
	subq	$16, %rsp
	movq	%rdi, -8(%rbp)
	movq	%rsi, -16(%rbp)
	cmpq	$0, -8(%rbp)
	jne	.L880
	leaq	.LC239(%rip), %rax
	movq	%rax, %rdi
	call	puts@PLT
	jmp	.L879
.L880:
	cmpq	$0, -16(%rbp)
	jne	.L882
	leaq	.LC240(%rip), %rax
	movq	%rax, %rdi
	call	puts@PLT
	jmp	.L879
.L882:
	movq	-8(%rbp), %rax
	movq	%rax, %rdi
	call	ofmReadBlockHeader
	movq	-16(%rbp), %rax
	movl	$1, %edx
	movl	$4, %esi
	pxor	%xmm1, %xmm1
	movl	.LC17(%rip), %ecx
	movd	%ecx, %xmm0
	movq	%rax, %rdi
	call	emb_pattern_addStitchRel@PLT
.L879:
	leave
	.cfi_def_cfa 7, 8
	ret
	.cfi_endproc
.LFE105:
	.size	ofmReadColorChange, .-ofmReadColorChange
	.section	.rodata
	.align 8
.LC241:
	.string	"ERROR: ofm_read_threads(), file argument is null"
	.align 8
.LC242:
	.string	"ERROR: ofm_read_threads(), p argument is null"
	.align 8
.LC243:
	.string	"ERROR: format-ofm.c ofm_read_threads(), unable to allocate memory for expandedString"
.LC244:
	.string	"threadLibrary: %d\n"
.LC245:
	.string	"colorNumber: %d\n"
.LC246:
	.string	"colorNameLength: %d\n"
.LC247:
	.string	"%10d"
.LC248:
	.string	"primary library name: %s\n"
	.text
	.globl	ofmReadThreads
	.type	ofmReadThreads, @function
ofmReadThreads:
.LFB106:
	.cfi_startproc
	pushq	%rbp
	.cfi_def_cfa_offset 16
	.cfi_offset 6, -16
	movq	%rsp, %rbp
	.cfi_def_cfa_register 6
	subq	$1024, %rsp
	movq	%rdi, -1016(%rbp)
	movq	%rsi, -1024(%rbp)
	movq	$0, -16(%rbp)
	movq	$0, -24(%rbp)
	cmpq	$0, -1016(%rbp)
	jne	.L884
	leaq	.LC241(%rip), %rax
	movq	%rax, %rdi
	call	puts@PLT
	jmp	.L883
.L884:
	cmpq	$0, -1024(%rbp)
	jne	.L886
	leaq	.LC242(%rip), %rax
	movq	%rax, %rdi
	call	puts@PLT
	jmp	.L883
.L886:
	movq	-1016(%rbp), %rax
	movl	$1, %edx
	movl	$4, %esi
	movq	%rax, %rdi
	call	fseek@PLT
	movq	-1016(%rbp), %rax
	movq	%rax, %rdi
	call	emb_read_i16@PLT
	cwtl
	movl	%eax, -28(%rbp)
	movq	-1016(%rbp), %rax
	movl	$1, %edx
	movl	$4, %esi
	movq	%rax, %rdi
	call	fseek@PLT
	movq	-1016(%rbp), %rax
	movq	%rax, %rdi
	call	emb_read_i16@PLT
	cwtl
	movl	%eax, -32(%rbp)
	movl	-32(%rbp), %eax
	cltq
	movq	%rax, %rdi
	call	malloc@PLT
	movq	%rax, -24(%rbp)
	cmpq	$0, -24(%rbp)
	jne	.L887
	leaq	.LC243(%rip), %rax
	movq	%rax, %rdi
	call	puts@PLT
	jmp	.L883
.L887:
	movl	-32(%rbp), %eax
	movslq	%eax, %rdx
	movq	-1016(%rbp), %rcx
	movq	-24(%rbp), %rax
	movl	$1, %esi
	movq	%rax, %rdi
	call	fread@PLT
	movl	$0, -4(%rbp)
	jmp	.L888
.L893:
	leaq	-1008(%rbp), %rcx
	movq	-1016(%rbp), %rax
	movl	$4, %edx
	movq	%rcx, %rsi
	movq	%rax, %rdi
	call	embColor_read@PLT
	movq	-1016(%rbp), %rax
	movq	%rax, %rdi
	call	emb_read_i16@PLT
	cwtl
	movl	%eax, -52(%rbp)
	movl	emb_verbose(%rip), %eax
	cmpl	$1, %eax
	jle	.L889
	movl	-52(%rbp), %eax
	movl	%eax, %esi
	leaq	.LC244(%rip), %rax
	movq	%rax, %rdi
	movl	$0, %eax
	call	printf@PLT
.L889:
	movq	-1016(%rbp), %rax
	movl	$1, %edx
	movl	$2, %esi
	movq	%rax, %rdi
	call	fseek@PLT
	movq	-1016(%rbp), %rax
	movq	%rax, %rdi
	call	emb_read_i32@PLT
	movl	%eax, -56(%rbp)
	movl	emb_verbose(%rip), %eax
	cmpl	$1, %eax
	jle	.L890
	movl	-56(%rbp), %eax
	movl	%eax, %esi
	leaq	.LC245(%rip), %rax
	movq	%rax, %rdi
	movl	$0, %eax
	call	printf@PLT
.L890:
	movq	-1016(%rbp), %rax
	movl	$1, %edx
	movl	$3, %esi
	movq	%rax, %rdi
	call	fseek@PLT
	movq	-1016(%rbp), %rdx
	leaq	-72(%rbp), %rax
	movq	%rdx, %rcx
	movl	$1, %edx
	movl	$1, %esi
	movq	%rax, %rdi
	call	fread@PLT
	cmpq	$1, %rax
	je	.L891
	leaq	.LC188(%rip), %rax
	movq	%rax, %rdi
	call	puts@PLT
.L891:
	movl	emb_verbose(%rip), %eax
	cmpl	$1, %eax
	jle	.L892
	movl	-72(%rbp), %eax
	movl	%eax, %esi
	leaq	.LC246(%rip), %rax
	movq	%rax, %rdi
	movl	$0, %eax
	call	printf@PLT
.L892:
	movl	-72(%rbp), %eax
	addl	%eax, %eax
	movslq	%eax, %rdx
	movq	-1016(%rbp), %rcx
	leaq	-592(%rbp), %rax
	movl	$1, %esi
	movq	%rax, %rdi
	call	fread@PLT
	movq	-1016(%rbp), %rax
	movl	$1, %edx
	movl	$2, %esi
	movq	%rax, %rdi
	call	fseek@PLT
	movl	-56(%rbp), %edx
	leaq	-67(%rbp), %rax
	leaq	.LC247(%rip), %rcx
	movq	%rcx, %rsi
	movq	%rax, %rdi
	movl	$0, %eax
	call	sprintf@PLT
	leaq	-67(%rbp), %rax
	leaq	-1008(%rbp), %rdx
	addq	$203, %rdx
	movq	%rax, %rsi
	movq	%rdx, %rdi
	call	strcpy@PLT
	leaq	-592(%rbp), %rax
	leaq	-1008(%rbp), %rdx
	addq	$3, %rdx
	movq	%rax, %rsi
	movq	%rdx, %rdi
	call	strcpy@PLT
	movq	-1024(%rbp), %r8
	subq	$8, %rsp
	subq	$408, %rsp
	movq	%rsp, %rax
	movq	%rax, %rdx
	leaq	-1008(%rbp), %rax
	movl	$50, %ecx
	movq	%rdx, %rdi
	movq	%rax, %rsi
	rep movsq
	movq	%rsi, %rax
	movq	%rdi, %rdx
	movzwl	(%rax), %ecx
	movw	%cx, (%rdx)
	leaq	2(%rdx), %rdx
	leaq	2(%rax), %rax
	movzbl	(%rax), %ecx
	movb	%cl, (%rdx)
	movq	%r8, %rdi
	call	emb_pattern_addThread@PLT
	addq	$416, %rsp
	addl	$1, -4(%rbp)
.L888:
	movl	-4(%rbp), %eax
	cmpl	-28(%rbp), %eax
	jl	.L893
	movq	-1016(%rbp), %rax
	movl	$1, %edx
	movl	$2, %esi
	movq	%rax, %rdi
	call	fseek@PLT
	movq	-1016(%rbp), %rax
	movq	%rax, %rdi
	call	ofmReadLibrary
	movq	%rax, -16(%rbp)
	movq	-1016(%rbp), %rax
	movq	%rax, %rdi
	call	emb_read_i16@PLT
	cwtl
	movl	%eax, -36(%rbp)
	movl	emb_verbose(%rip), %eax
	cmpl	$1, %eax
	jle	.L894
	movq	-16(%rbp), %rax
	movq	%rax, %rsi
	leaq	.LC248(%rip), %rax
	movq	%rax, %rdi
	movl	$0, %eax
	call	printf@PLT
.L894:
	movl	$0, -4(%rbp)
	jmp	.L895
.L896:
	movq	-1016(%rbp), %rax
	movq	%rax, %rdi
	call	ofmReadLibrary
	movq	%rax, -48(%rbp)
	movq	-48(%rbp), %rax
	movq	%rax, %rdi
	call	safe_free@PLT
	addl	$1, -4(%rbp)
.L895:
	movl	-4(%rbp), %eax
	cmpl	-36(%rbp), %eax
	jl	.L896
.L883:
	leave
	.cfi_def_cfa 7, 8
	ret
	.cfi_endproc
.LFE106:
	.size	ofmReadThreads, .-ofmReadThreads
	.globl	ofmDecode
	.type	ofmDecode, @function
ofmDecode:
.LFB107:
	.cfi_startproc
	pushq	%rbp
	.cfi_def_cfa_offset 16
	.cfi_offset 6, -16
	movq	%rsp, %rbp
	.cfi_def_cfa_register 6
	movl	%edi, %edx
	movl	%esi, %eax
	movb	%dl, -20(%rbp)
	movb	%al, -24(%rbp)
	movzbl	-20(%rbp), %eax
	sall	$8, %eax
	movl	%eax, %edx
	movzbl	-24(%rbp), %eax
	orl	%edx, %eax
	cwtl
	pxor	%xmm0, %xmm0
	cvtsi2ssl	%eax, %xmm0
	movss	%xmm0, -4(%rbp)
	movss	-4(%rbp), %xmm0
	popq	%rbp
	.cfi_def_cfa 7, 8
	ret
	.cfi_endproc
.LFE107:
	.size	ofmDecode, .-ofmDecode
	.section	.rodata
	.align 8
.LC249:
	.string	"ERROR: format-ofm.c ofmReadExpanded(), file argument is null"
	.align 8
.LC250:
	.string	"ERROR: format-ofm.c ofmReadExpanded(), p argument is null"
	.text
	.globl	ofmReadExpanded
	.type	ofmReadExpanded, @function
ofmReadExpanded:
.LFB108:
	.cfi_startproc
	pushq	%rbp
	.cfi_def_cfa_offset 16
	.cfi_offset 6, -16
	movq	%rsp, %rbp
	.cfi_def_cfa_register 6
	subq	$48, %rsp
	movq	%rdi, -40(%rbp)
	movq	%rsi, -48(%rbp)
	movl	$0, -8(%rbp)
	cmpq	$0, -40(%rbp)
	jne	.L900
	leaq	.LC249(%rip), %rax
	movq	%rax, %rdi
	call	puts@PLT
	jmp	.L899
.L900:
	cmpq	$0, -48(%rbp)
	jne	.L902
	leaq	.LC250(%rip), %rax
	movq	%rax, %rdi
	call	puts@PLT
	jmp	.L899
.L902:
	movq	-40(%rbp), %rax
	movq	%rax, %rdi
	call	ofmReadBlockHeader
	movq	-40(%rbp), %rax
	movq	%rax, %rdi
	call	emb_read_i32@PLT
	movl	%eax, -8(%rbp)
	movl	$0, -4(%rbp)
	jmp	.L903
.L908:
	movq	-40(%rbp), %rdx
	leaq	-29(%rbp), %rax
	movq	%rdx, %rcx
	movl	$5, %edx
	movl	$1, %esi
	movq	%rax, %rdi
	call	fread@PLT
	movzbl	-29(%rbp), %eax
	testb	%al, %al
	jne	.L904
	movzbl	-27(%rbp), %eax
	movzbl	%al, %edx
	movzbl	-28(%rbp), %eax
	movzbl	%al, %eax
	movl	%edx, %esi
	movl	%eax, %edi
	call	ofmDecode
	cvtss2sd	%xmm0, %xmm0
	movsd	.LC30(%rip), %xmm1
	divsd	%xmm1, %xmm0
	cvtsd2ss	%xmm0, %xmm0
	movss	%xmm0, -20(%rbp)
	movzbl	-25(%rbp), %eax
	movzbl	%al, %edx
	movzbl	-26(%rbp), %eax
	movzbl	%al, %eax
	movl	%edx, %esi
	movl	%eax, %edi
	call	ofmDecode
	cvtss2sd	%xmm0, %xmm0
	movsd	.LC30(%rip), %xmm1
	divsd	%xmm1, %xmm0
	cvtsd2ss	%xmm0, %xmm0
	movss	%xmm0, -24(%rbp)
	cmpl	$0, -4(%rbp)
	sete	%al
	movzbl	%al, %esi
	movss	-24(%rbp), %xmm0
	movl	-20(%rbp), %ecx
	movq	-48(%rbp), %rax
	movl	$1, %edx
	movaps	%xmm0, %xmm1
	movd	%ecx, %xmm0
	movq	%rax, %rdi
	call	emb_pattern_addStitchAbs@PLT
	jmp	.L905
.L904:
	movzbl	-29(%rbp), %eax
	cmpb	$32, %al
	jne	.L905
	movzbl	-27(%rbp), %eax
	movzbl	%al, %edx
	movzbl	-28(%rbp), %eax
	movzbl	%al, %eax
	movl	%edx, %esi
	movl	%eax, %edi
	call	ofmDecode
	cvtss2sd	%xmm0, %xmm0
	movsd	.LC30(%rip), %xmm1
	divsd	%xmm1, %xmm0
	cvtsd2ss	%xmm0, %xmm0
	movss	%xmm0, -12(%rbp)
	movzbl	-25(%rbp), %eax
	movzbl	%al, %edx
	movzbl	-26(%rbp), %eax
	movzbl	%al, %eax
	movl	%edx, %esi
	movl	%eax, %edi
	call	ofmDecode
	cvtss2sd	%xmm0, %xmm0
	movsd	.LC30(%rip), %xmm1
	divsd	%xmm1, %xmm0
	cvtsd2ss	%xmm0, %xmm0
	movss	%xmm0, -16(%rbp)
	cmpl	$0, -4(%rbp)
	jne	.L906
	movl	$2, %esi
	jmp	.L907
.L906:
	movl	$0, %esi
.L907:
	movss	-16(%rbp), %xmm0
	movl	-12(%rbp), %ecx
	movq	-48(%rbp), %rax
	movl	$1, %edx
	movaps	%xmm0, %xmm1
	movd	%ecx, %xmm0
	movq	%rax, %rdi
	call	emb_pattern_addStitchAbs@PLT
.L905:
	addl	$1, -4(%rbp)
.L903:
	movl	-4(%rbp), %eax
	cmpl	-8(%rbp), %eax
	jl	.L908
.L899:
	leave
	.cfi_def_cfa 7, 8
	ret
	.cfi_endproc
.LFE108:
	.size	ofmReadExpanded, .-ofmReadExpanded
	.section	.rodata
	.align 8
.LC251:
	.string	"Overridden during development."
	.align 8
.LC252:
	.string	"ERROR: format-ofm.c readOfm(), unable to allocate memory for bcfFile"
.LC253:
	.string	"EdsIV Object"
	.align 8
.LC254:
	.string	"ERROR: format-ofm.c readOfm(), unable to allocate memory for s"
.LC255:
	.string	"unknownCount = %d\n"
.LC256:
	.string	"key: %d\n"
	.text
	.globl	readOfm
	.type	readOfm, @function
readOfm:
.LFB109:
	.cfi_startproc
	pushq	%rbp
	.cfi_def_cfa_offset 16
	.cfi_offset 6, -16
	movq	%rsp, %rbp
	.cfi_def_cfa_register 6
	subq	$64, %rsp
	movq	%rdi, -56(%rbp)
	movq	%rsi, -64(%rbp)
	movl	$0, -4(%rbp)
	movq	$0, -16(%rbp)
	movq	$0, -24(%rbp)
	movl	emb_verbose(%rip), %eax
	cmpl	$1, %eax
	jle	.L910
	leaq	.LC251(%rip), %rax
	movq	%rax, %rdi
	call	puts@PLT
	movl	$0, %eax
	jmp	.L911
.L910:
	movl	$104, %edi
	call	malloc@PLT
	movq	%rax, -24(%rbp)
	cmpq	$0, -24(%rbp)
	jne	.L912
	leaq	.LC252(%rip), %rax
	movq	%rax, %rdi
	call	puts@PLT
	movl	$0, %eax
	jmp	.L911
.L912:
	movq	-24(%rbp), %rdx
	movq	-64(%rbp), %rax
	movq	%rdx, %rsi
	movq	%rax, %rdi
	call	bcfFile_read@PLT
	movq	-64(%rbp), %rcx
	movq	-24(%rbp), %rax
	leaq	.LC253(%rip), %rdx
	movq	%rcx, %rsi
	movq	%rax, %rdi
	call	GetFile@PLT
	movq	%rax, -32(%rbp)
	movq	-24(%rbp), %rax
	movq	%rax, %rdi
	call	bcf_file_free@PLT
	movq	$0, -24(%rbp)
	movq	-32(%rbp), %rax
	movl	$0, %edx
	movl	$454, %esi
	movq	%rax, %rdi
	call	fseek@PLT
	movq	-56(%rbp), %rdx
	movq	-32(%rbp), %rax
	movq	%rdx, %rsi
	movq	%rax, %rdi
	call	ofmReadThreads
	movq	-32(%rbp), %rax
	movl	$1, %edx
	movl	$272, %esi
	movq	%rax, %rdi
	call	fseek@PLT
	movq	-32(%rbp), %rax
	movl	$1, %edx
	movl	$4, %esi
	movq	%rax, %rdi
	call	fseek@PLT
	movq	-32(%rbp), %rax
	movq	%rax, %rdi
	call	emb_read_i16@PLT
	cwtl
	movl	%eax, -36(%rbp)
	movl	-36(%rbp), %eax
	cltq
	movq	%rax, %rdi
	call	malloc@PLT
	movq	%rax, -16(%rbp)
	cmpq	$0, -16(%rbp)
	jne	.L913
	leaq	.LC254(%rip), %rax
	movq	%rax, %rdi
	call	puts@PLT
	movl	$0, %eax
	jmp	.L911
.L913:
	movl	-36(%rbp), %eax
	movslq	%eax, %rdx
	movq	-32(%rbp), %rcx
	movq	-16(%rbp), %rax
	movl	$1, %esi
	movq	%rax, %rdi
	call	fread@PLT
	movq	-32(%rbp), %rax
	movq	%rax, %rdi
	call	emb_read_i16@PLT
	cwtl
	movl	%eax, -40(%rbp)
	movl	emb_verbose(%rip), %eax
	cmpl	$1, %eax
	jle	.L914
	movl	-40(%rbp), %eax
	movl	%eax, %esi
	leaq	.LC255(%rip), %rax
	movq	%rax, %rdi
	movl	$0, %eax
	call	printf@PLT
.L914:
	movq	-32(%rbp), %rax
	movq	%rax, %rdi
	call	emb_read_i16@PLT
	movq	-32(%rbp), %rax
	movq	%rax, %rdi
	call	ofmReadClass
	movl	%eax, -4(%rbp)
.L921:
	cmpl	$65279, -4(%rbp)
	je	.L923
	cmpl	$32924, -4(%rbp)
	jne	.L917
	movq	-56(%rbp), %rdx
	movq	-32(%rbp), %rax
	movq	%rdx, %rsi
	movq	%rax, %rdi
	call	ofmReadExpanded
	jmp	.L918
.L917:
	movq	-56(%rbp), %rdx
	movq	-32(%rbp), %rax
	movq	%rdx, %rsi
	movq	%rax, %rdi
	call	ofmReadColorChange
.L918:
	movq	-32(%rbp), %rax
	movq	%rax, %rdi
	call	emb_read_u16@PLT
	movzwl	%ax, %eax
	movl	%eax, -4(%rbp)
	movl	emb_verbose(%rip), %eax
	cmpl	$1, %eax
	jle	.L919
	movl	-4(%rbp), %eax
	movl	%eax, %esi
	leaq	.LC256(%rip), %rax
	movq	%rax, %rdi
	movl	$0, %eax
	call	printf@PLT
.L919:
	cmpl	$65535, -4(%rbp)
	jne	.L921
	movq	-32(%rbp), %rax
	movq	%rax, %rdi
	call	ofmReadClass
	jmp	.L921
.L923:
	nop
	movq	-56(%rbp), %rax
	movl	$1, %edx
	movl	$1, %esi
	movq	%rax, %rdi
	call	emb_pattern_flip@PLT
	movl	$1, %eax
.L911:
	leave
	.cfi_def_cfa 7, 8
	ret
	.cfi_endproc
.LFE109:
	.size	readOfm, .-readOfm
	.globl	writeOfm
	.type	writeOfm, @function
writeOfm:
.LFB110:
	.cfi_startproc
	pushq	%rbp
	.cfi_def_cfa_offset 16
	.cfi_offset 6, -16
	movq	%rsp, %rbp
	.cfi_def_cfa_register 6
	subq	$16, %rsp
	movq	%rdi, -8(%rbp)
	movq	%rsi, -16(%rbp)
	leaq	.LC42(%rip), %rax
	movq	%rax, %rdi
	call	puts@PLT
	movq	-16(%rbp), %rdx
	movq	-8(%rbp), %rax
	movq	%rdx, %rsi
	movq	%rax, %rdi
	call	writeDst
	movl	$0, %eax
	leave
	.cfi_def_cfa 7, 8
	ret
	.cfi_endproc
.LFE110:
	.size	writeOfm, .-writeOfm
	.section	.rodata
.LC257:
	.string	"version: %d\n"
.LC258:
	.string	"hoop size: %d\n"
.LC259:
	.string	"st: %d\n"
	.text
	.globl	readPcd
	.type	readPcd, @function
readPcd:
.LFB111:
	.cfi_startproc
	pushq	%rbp
	.cfi_def_cfa_offset 16
	.cfi_offset 6, -16
	movq	%rsp, %rbp
	.cfi_def_cfa_register 6
	subq	$480, %rsp
	movq	%rdi, -456(%rbp)
	movq	%rsi, -464(%rbp)
	movq	%rdx, -472(%rbp)
	movb	$1, -1(%rbp)
	movl	$0, -8(%rbp)
	pxor	%xmm0, %xmm0
	movss	%xmm0, -16(%rbp)
	pxor	%xmm0, %xmm0
	movss	%xmm0, -20(%rbp)
	movl	$0, -24(%rbp)
	movw	$0, -26(%rbp)
	movq	-472(%rbp), %rax
	movq	%rax, %rdi
	call	fgetc@PLT
	movb	%al, -27(%rbp)
	movq	-472(%rbp), %rax
	movq	%rax, %rdi
	call	fgetc@PLT
	movb	%al, -28(%rbp)
	movq	-472(%rbp), %rax
	movq	%rax, %rdi
	call	emb_read_u16@PLT
	movw	%ax, -26(%rbp)
	movl	emb_verbose(%rip), %eax
	cmpl	$1, %eax
	jle	.L927
	movzwl	-26(%rbp), %eax
	movl	%eax, %esi
	leaq	.LC193(%rip), %rax
	movq	%rax, %rdi
	movl	$0, %eax
	call	printf@PLT
.L927:
	movl	emb_verbose(%rip), %eax
	cmpl	$1, %eax
	jle	.L928
	movzbl	-27(%rbp), %eax
	movl	%eax, %esi
	leaq	.LC257(%rip), %rax
	movq	%rax, %rdi
	movl	$0, %eax
	call	printf@PLT
	movzbl	-28(%rbp), %eax
	movl	%eax, %esi
	leaq	.LC258(%rip), %rax
	movq	%rax, %rdi
	movl	$0, %eax
	call	printf@PLT
.L928:
	movl	$0, -8(%rbp)
	jmp	.L929
.L932:
	leaq	-448(%rbp), %rcx
	movq	-472(%rbp), %rax
	movl	$4, %edx
	movq	%rcx, %rsi
	movq	%rax, %rdi
	call	embColor_read@PLT
	movb	$0, -245(%rbp)
	movb	$0, -445(%rbp)
	movzbl	-448(%rbp), %eax
	testb	%al, %al
	jne	.L930
	movzbl	-447(%rbp), %eax
	testb	%al, %al
	jne	.L930
	movzbl	-446(%rbp), %eax
	testb	%al, %al
	je	.L931
.L930:
	movb	$0, -1(%rbp)
.L931:
	movq	-456(%rbp), %r8
	subq	$8, %rsp
	subq	$408, %rsp
	movq	%rsp, %rax
	movq	%rax, %rdx
	leaq	-448(%rbp), %rax
	movl	$50, %ecx
	movq	%rdx, %rdi
	movq	%rax, %rsi
	rep movsq
	movq	%rsi, %rax
	movq	%rdi, %rdx
	movzwl	(%rax), %ecx
	movw	%cx, (%rdx)
	leaq	2(%rdx), %rdx
	leaq	2(%rax), %rax
	movzbl	(%rax), %ecx
	movb	%cl, (%rdx)
	movq	%r8, %rdi
	call	emb_pattern_addThread@PLT
	addq	$416, %rsp
	addl	$1, -8(%rbp)
.L929:
	movzwl	-26(%rbp), %eax
	cmpl	%eax, -8(%rbp)
	jl	.L932
	cmpb	$0, -1(%rbp)
	je	.L933
	movq	-464(%rbp), %rdx
	movq	-456(%rbp), %rax
	movq	%rdx, %rsi
	movq	%rax, %rdi
	call	emb_pattern_loadExternalColorFile@PLT
.L933:
	movq	-472(%rbp), %rax
	movq	%rax, %rdi
	call	emb_read_u16@PLT
	movzwl	%ax, %eax
	movl	%eax, -24(%rbp)
	movl	emb_verbose(%rip), %eax
	cmpl	$1, %eax
	jle	.L934
	movl	-24(%rbp), %eax
	movl	%eax, %esi
	leaq	.LC259(%rip), %rax
	movq	%rax, %rdi
	movl	$0, %eax
	call	printf@PLT
.L934:
	movl	$0, -8(%rbp)
	jmp	.L935
.L941:
	movq	-472(%rbp), %rdx
	leaq	-37(%rbp), %rax
	movq	%rdx, %rcx
	movl	$9, %edx
	movl	$1, %esi
	movq	%rax, %rdi
	call	fread@PLT
	cmpq	$9, %rax
	jne	.L943
	movl	$0, -12(%rbp)
	movzbl	-29(%rbp), %eax
	movzbl	%al, %eax
	andl	$1, %eax
	testl	%eax, %eax
	je	.L938
	movl	$4, -12(%rbp)
	jmp	.L939
.L938:
	movzbl	-29(%rbp), %eax
	movzbl	%al, %eax
	andl	$4, %eax
	testl	%eax, %eax
	je	.L939
	movl	$2, -12(%rbp)
.L939:
	movzbl	-34(%rbp), %eax
	movzbl	%al, %edx
	movzbl	-35(%rbp), %eax
	movzbl	%al, %ecx
	movzbl	-36(%rbp), %eax
	movzbl	%al, %eax
	movl	%ecx, %esi
	movl	%eax, %edi
	call	pfaffDecode@PLT
	movd	%xmm0, %eax
	movl	%eax, -16(%rbp)
	movzbl	-30(%rbp), %eax
	movzbl	%al, %edx
	movzbl	-31(%rbp), %eax
	movzbl	%al, %ecx
	movzbl	-32(%rbp), %eax
	movzbl	%al, %eax
	movl	%ecx, %esi
	movl	%eax, %edi
	call	pfaffDecode@PLT
	movd	%xmm0, %eax
	movl	%eax, -20(%rbp)
	movss	-20(%rbp), %xmm0
	movss	.LC18(%rip), %xmm1
	movaps	%xmm0, %xmm2
	divss	%xmm1, %xmm2
	movss	-16(%rbp), %xmm0
	movss	.LC18(%rip), %xmm1
	divss	%xmm1, %xmm0
	movd	%xmm0, %ecx
	movl	-12(%rbp), %esi
	movq	-456(%rbp), %rax
	movl	$1, %edx
	movaps	%xmm2, %xmm1
	movd	%ecx, %xmm0
	movq	%rax, %rdi
	call	emb_pattern_addStitchAbs@PLT
	addl	$1, -8(%rbp)
.L935:
	movl	-8(%rbp), %eax
	cmpl	-24(%rbp), %eax
	jl	.L941
	jmp	.L937
.L943:
	nop
.L937:
	movl	$1, %eax
	leave
	.cfi_def_cfa 7, 8
	ret
	.cfi_endproc
.LFE111:
	.size	readPcd, .-readPcd
	.section	.rodata
.LC260:
	.string	"2\003"
	.text
	.globl	writePcd
	.type	writePcd, @function
writePcd:
.LFB112:
	.cfi_startproc
	pushq	%rbp
	.cfi_def_cfa_offset 16
	.cfi_offset 6, -16
	movq	%rsp, %rbp
	.cfi_def_cfa_register 6
	pushq	%r12
	pushq	%rbx
	subq	$48, %rsp
	.cfi_offset 12, -24
	.cfi_offset 3, -32
	movq	%rdi, -56(%rbp)
	movq	%rsi, -64(%rbp)
	movq	-64(%rbp), %rax
	movq	%rax, %rcx
	movl	$2, %edx
	movl	$1, %esi
	leaq	.LC260(%rip), %rax
	movq	%rax, %rdi
	call	fwrite@PLT
	movq	-56(%rbp), %rax
	movq	24(%rax), %rax
	movl	24(%rax), %eax
	movzwl	%ax, %edx
	movq	-64(%rbp), %rax
	movl	%edx, %esi
	movq	%rax, %rdi
	call	emb_write_u16@PLT
	movl	$0, -20(%rbp)
	jmp	.L945
.L946:
	movq	-56(%rbp), %rax
	movq	24(%rax), %rax
	movq	16(%rax), %rdx
	movl	-20(%rbp), %eax
	cltq
	imulq	$403, %rax, %rax
	addq	%rdx, %rax
	movzwl	(%rax), %edx
	movw	%dx, -23(%rbp)
	movzbl	2(%rax), %eax
	movb	%al, -21(%rbp)
	movq	-64(%rbp), %rax
	movl	$4, %edx
	movzbl	-23(%rbp), %ecx
	movzbl	-22(%rbp), %esi
	salq	$8, %rsi
	orq	%rcx, %rsi
	movzbl	-21(%rbp), %ecx
	salq	$16, %rcx
	orq	%rsi, %rcx
	movq	%rcx, %rsi
	movq	%rax, %rdi
	call	embColor_write@PLT
	addl	$1, -20(%rbp)
.L945:
	movq	-56(%rbp), %rax
	movq	24(%rax), %rax
	movl	24(%rax), %eax
	cmpl	%eax, -20(%rbp)
	jl	.L946
	movl	$16, %eax
	subl	-20(%rbp), %eax
	leal	0(,%rax,4), %edx
	movq	-64(%rbp), %rax
	movl	$0, %esi
	movq	%rax, %rdi
	call	fpad@PLT
	movq	-56(%rbp), %rax
	movq	32(%rax), %rax
	movl	24(%rax), %eax
	movzwl	%ax, %edx
	movq	-64(%rbp), %rax
	movl	%edx, %esi
	movq	%rax, %rdi
	call	emb_write_u16@PLT
	movl	$0, -20(%rbp)
	jmp	.L947
.L948:
	movq	-56(%rbp), %rax
	movq	32(%rax), %rax
	movq	8(%rax), %rax
	movl	-20(%rbp), %edx
	movslq	%edx, %rdx
	salq	$4, %rdx
	addq	%rdx, %rax
	movq	8(%rax), %rdx
	movq	(%rax), %rax
	movq	%rax, -48(%rbp)
	movq	%rdx, -40(%rbp)
	movl	-48(%rbp), %ebx
	movss	-40(%rbp), %xmm1
	movss	.LC18(%rip), %xmm0
	mulss	%xmm0, %xmm1
	movd	%xmm1, %eax
	movd	%eax, %xmm0
	call	emb_round@PLT
	movl	%eax, %r12d
	movss	-44(%rbp), %xmm1
	movss	.LC18(%rip), %xmm0
	mulss	%xmm0, %xmm1
	movd	%xmm1, %eax
	movd	%eax, %xmm0
	call	emb_round@PLT
	movl	%eax, %esi
	movq	-64(%rbp), %rax
	movl	%ebx, %ecx
	movl	%r12d, %edx
	movq	%rax, %rdi
	call	pfaffEncode@PLT
	addl	$1, -20(%rbp)
.L947:
	movq	-56(%rbp), %rax
	movq	32(%rax), %rax
	movl	24(%rax), %eax
	cmpl	%eax, -20(%rbp)
	jl	.L948
	movl	$1, %eax
	addq	$48, %rsp
	popq	%rbx
	popq	%r12
	popq	%rbp
	.cfi_def_cfa 7, 8
	ret
	.cfi_endproc
.LFE112:
	.size	writePcd, .-writePcd
	.section	.rodata
.LC261:
	.string	"TODO: check header_size %d\n"
	.text
	.globl	readPcm
	.type	readPcm, @function
readPcm:
.LFB113:
	.cfi_startproc
	pushq	%rbp
	.cfi_def_cfa_offset 16
	.cfi_offset 6, -16
	movq	%rsp, %rbp
	.cfi_def_cfa_register 6
	subq	$64, %rsp
	movq	%rdi, -56(%rbp)
	movq	%rsi, -64(%rbp)
	movl	$0, -4(%rbp)
	pxor	%xmm0, %xmm0
	movss	%xmm0, -12(%rbp)
	pxor	%xmm0, %xmm0
	movss	%xmm0, -16(%rbp)
	movl	$38, -20(%rbp)
	movl	emb_verbose(%rip), %eax
	cmpl	$1, %eax
	jle	.L951
	movl	-20(%rbp), %eax
	movl	%eax, %esi
	leaq	.LC261(%rip), %rax
	movq	%rax, %rdi
	movl	$0, %eax
	call	printf@PLT
.L951:
	movq	-64(%rbp), %rax
	movl	$0, %edx
	movl	$4, %esi
	movq	%rax, %rdi
	call	fseek@PLT
	movl	$0, -4(%rbp)
	jmp	.L952
.L953:
	movq	-64(%rbp), %rax
	movq	%rax, %rdi
	call	fgetc@PLT
	movq	-64(%rbp), %rax
	movq	%rax, %rdi
	call	fgetc@PLT
	movl	%eax, -28(%rbp)
	movq	-56(%rbp), %r8
	subq	$8, %rsp
	movl	-28(%rbp), %eax
	cltq
	imulq	$403, %rax, %rax
	leaq	pcm_colors(%rip), %rcx
	subq	$408, %rsp
	movq	%rsp, %rdx
	addq	%rcx, %rax
	movl	$50, %ecx
	movq	%rdx, %rdi
	movq	%rax, %rsi
	rep movsq
	movq	%rsi, %rax
	movq	%rdi, %rdx
	movzwl	(%rax), %ecx
	movw	%cx, (%rdx)
	leaq	2(%rdx), %rdx
	leaq	2(%rax), %rax
	movzbl	(%rax), %ecx
	movb	%cl, (%rdx)
	movq	%r8, %rdi
	call	emb_pattern_addThread@PLT
	addq	$416, %rsp
	addl	$1, -4(%rbp)
.L952:
	cmpl	$15, -4(%rbp)
	jle	.L953
	movq	-64(%rbp), %rax
	movq	%rax, %rdi
	call	emb_read_i16be@PLT
	cwtl
	movl	%eax, -24(%rbp)
	movl	-24(%rbp), %eax
	movl	$1000000, %edx
	cmpl	%edx, %eax
	cmovg	%edx, %eax
	movl	%eax, -24(%rbp)
	movl	$0, -4(%rbp)
	jmp	.L954
.L960:
	movl	$0, -8(%rbp)
	movq	-64(%rbp), %rdx
	leaq	-37(%rbp), %rax
	movq	%rdx, %rcx
	movl	$9, %edx
	movl	$1, %esi
	movq	%rax, %rdi
	call	fread@PLT
	cmpq	$9, %rax
	jne	.L962
	movzbl	-29(%rbp), %eax
	movzbl	%al, %eax
	andl	$1, %eax
	testl	%eax, %eax
	je	.L957
	movl	$4, -8(%rbp)
	jmp	.L958
.L957:
	movzbl	-29(%rbp), %eax
	movzbl	%al, %eax
	andl	$4, %eax
	testl	%eax, %eax
	je	.L958
	movl	$2, -8(%rbp)
.L958:
	movzbl	-37(%rbp), %eax
	movzbl	%al, %edx
	movzbl	-36(%rbp), %eax
	movzbl	%al, %ecx
	movzbl	-35(%rbp), %eax
	movzbl	%al, %eax
	movl	%ecx, %esi
	movl	%eax, %edi
	call	pfaffDecode@PLT
	movd	%xmm0, %eax
	movl	%eax, -12(%rbp)
	movzbl	-33(%rbp), %eax
	movzbl	%al, %edx
	movzbl	-32(%rbp), %eax
	movzbl	%al, %ecx
	movzbl	-31(%rbp), %eax
	movzbl	%al, %eax
	movl	%ecx, %esi
	movl	%eax, %edi
	call	pfaffDecode@PLT
	movd	%xmm0, %eax
	movl	%eax, -16(%rbp)
	movss	-16(%rbp), %xmm0
	movss	.LC18(%rip), %xmm1
	movaps	%xmm0, %xmm2
	divss	%xmm1, %xmm2
	movss	-12(%rbp), %xmm0
	movss	.LC18(%rip), %xmm1
	divss	%xmm1, %xmm0
	movd	%xmm0, %ecx
	movl	-8(%rbp), %esi
	movq	-56(%rbp), %rax
	movl	$1, %edx
	movaps	%xmm2, %xmm1
	movd	%ecx, %xmm0
	movq	%rax, %rdi
	call	emb_pattern_addStitchAbs@PLT
	addl	$1, -4(%rbp)
.L954:
	movl	-4(%rbp), %eax
	cmpl	-24(%rbp), %eax
	jl	.L960
	jmp	.L956
.L962:
	nop
.L956:
	movl	$1, %eax
	leave
	.cfi_def_cfa 7, 8
	ret
	.cfi_endproc
.LFE113:
	.size	readPcm, .-readPcm
	.section	.rodata
.LC262:
	.string	"overridden, defaulting to dst"
	.text
	.globl	writePcm
	.type	writePcm, @function
writePcm:
.LFB114:
	.cfi_startproc
	pushq	%rbp
	.cfi_def_cfa_offset 16
	.cfi_offset 6, -16
	movq	%rsp, %rbp
	.cfi_def_cfa_register 6
	subq	$16, %rsp
	movq	%rdi, -8(%rbp)
	movq	%rsi, -16(%rbp)
	leaq	.LC262(%rip), %rax
	movq	%rax, %rdi
	call	puts@PLT
	movq	-16(%rbp), %rdx
	movq	-8(%rbp), %rax
	movq	%rdx, %rsi
	movq	%rax, %rdi
	call	writeDst
	movl	$0, %eax
	leave
	.cfi_def_cfa 7, 8
	ret
	.cfi_endproc
.LFE114:
	.size	writePcm, .-writePcm
	.globl	readPcq
	.type	readPcq, @function
readPcq:
.LFB115:
	.cfi_startproc
	pushq	%rbp
	.cfi_def_cfa_offset 16
	.cfi_offset 6, -16
	movq	%rsp, %rbp
	.cfi_def_cfa_register 6
	subq	$480, %rsp
	movq	%rdi, -456(%rbp)
	movq	%rsi, -464(%rbp)
	movq	%rdx, -472(%rbp)
	movb	$1, -1(%rbp)
	movl	$0, -8(%rbp)
	pxor	%xmm0, %xmm0
	movss	%xmm0, -16(%rbp)
	pxor	%xmm0, %xmm0
	movss	%xmm0, -20(%rbp)
	movl	$0, -12(%rbp)
	movl	$0, -24(%rbp)
	movq	-472(%rbp), %rax
	movq	%rax, %rdi
	call	fgetc@PLT
	movb	%al, -25(%rbp)
	movq	-472(%rbp), %rax
	movq	%rax, %rdi
	call	fgetc@PLT
	movb	%al, -26(%rbp)
	movq	-472(%rbp), %rax
	movq	%rax, %rdi
	call	emb_read_u16@PLT
	movw	%ax, -28(%rbp)
	movl	emb_verbose(%rip), %eax
	cmpl	$1, %eax
	jle	.L966
	movzwl	-28(%rbp), %eax
	movl	%eax, %esi
	leaq	.LC193(%rip), %rax
	movq	%rax, %rdi
	movl	$0, %eax
	call	printf@PLT
.L966:
	movl	emb_verbose(%rip), %eax
	cmpl	$1, %eax
	jle	.L967
	movzbl	-25(%rbp), %eax
	movl	%eax, %esi
	leaq	.LC257(%rip), %rax
	movq	%rax, %rdi
	movl	$0, %eax
	call	printf@PLT
	movzbl	-26(%rbp), %eax
	movl	%eax, %esi
	leaq	.LC258(%rip), %rax
	movq	%rax, %rdi
	movl	$0, %eax
	call	printf@PLT
.L967:
	movl	$0, -8(%rbp)
	jmp	.L968
.L971:
	leaq	-448(%rbp), %rcx
	movq	-472(%rbp), %rax
	movl	$4, %edx
	movq	%rcx, %rsi
	movq	%rax, %rdi
	call	embColor_read@PLT
	movb	$0, -245(%rbp)
	movb	$0, -445(%rbp)
	movzbl	-448(%rbp), %eax
	testb	%al, %al
	jne	.L969
	movzbl	-447(%rbp), %eax
	testb	%al, %al
	jne	.L969
	movzbl	-446(%rbp), %eax
	testb	%al, %al
	je	.L970
.L969:
	movb	$0, -1(%rbp)
.L970:
	movq	-456(%rbp), %r8
	subq	$8, %rsp
	subq	$408, %rsp
	movq	%rsp, %rax
	movq	%rax, %rdx
	leaq	-448(%rbp), %rax
	movl	$50, %ecx
	movq	%rdx, %rdi
	movq	%rax, %rsi
	rep movsq
	movq	%rsi, %rax
	movq	%rdi, %rdx
	movzwl	(%rax), %ecx
	movw	%cx, (%rdx)
	leaq	2(%rdx), %rdx
	leaq	2(%rax), %rax
	movzbl	(%rax), %ecx
	movb	%cl, (%rdx)
	movq	%r8, %rdi
	call	emb_pattern_addThread@PLT
	addq	$416, %rsp
	addl	$1, -8(%rbp)
.L968:
	movzwl	-28(%rbp), %eax
	cmpl	%eax, -8(%rbp)
	jl	.L971
	cmpb	$0, -1(%rbp)
	je	.L972
	movq	-464(%rbp), %rdx
	movq	-456(%rbp), %rax
	movq	%rdx, %rsi
	movq	%rax, %rdi
	call	emb_pattern_loadExternalColorFile@PLT
.L972:
	movq	-472(%rbp), %rax
	movq	%rax, %rdi
	call	emb_read_u16@PLT
	movzwl	%ax, %eax
	movl	%eax, -24(%rbp)
	movl	emb_verbose(%rip), %eax
	cmpl	$1, %eax
	jle	.L973
	movl	-24(%rbp), %eax
	movl	%eax, %esi
	leaq	.LC259(%rip), %rax
	movq	%rax, %rdi
	movl	$0, %eax
	call	printf@PLT
.L973:
	movl	$0, -8(%rbp)
	jmp	.L974
.L980:
	movl	$0, -12(%rbp)
	movq	-472(%rbp), %rdx
	leaq	-37(%rbp), %rax
	movq	%rdx, %rcx
	movl	$9, %edx
	movl	$1, %esi
	movq	%rax, %rdi
	call	fread@PLT
	cmpq	$9, %rax
	jne	.L982
	movzbl	-29(%rbp), %eax
	movzbl	%al, %eax
	andl	$1, %eax
	testl	%eax, %eax
	je	.L977
	movl	$4, -12(%rbp)
	jmp	.L978
.L977:
	movzbl	-29(%rbp), %eax
	movzbl	%al, %eax
	andl	$4, %eax
	testl	%eax, %eax
	je	.L978
	movl	$2, -12(%rbp)
.L978:
	movzbl	-34(%rbp), %eax
	movzbl	%al, %edx
	movzbl	-35(%rbp), %eax
	movzbl	%al, %ecx
	movzbl	-36(%rbp), %eax
	movzbl	%al, %eax
	movl	%ecx, %esi
	movl	%eax, %edi
	call	pfaffDecode@PLT
	movd	%xmm0, %eax
	movl	%eax, -16(%rbp)
	movzbl	-30(%rbp), %eax
	movzbl	%al, %edx
	movzbl	-31(%rbp), %eax
	movzbl	%al, %ecx
	movzbl	-32(%rbp), %eax
	movzbl	%al, %eax
	movl	%ecx, %esi
	movl	%eax, %edi
	call	pfaffDecode@PLT
	movd	%xmm0, %eax
	movl	%eax, -20(%rbp)
	movss	-20(%rbp), %xmm0
	movss	.LC18(%rip), %xmm1
	movaps	%xmm0, %xmm2
	divss	%xmm1, %xmm2
	movss	-16(%rbp), %xmm0
	movss	.LC18(%rip), %xmm1
	divss	%xmm1, %xmm0
	movd	%xmm0, %ecx
	movl	-12(%rbp), %esi
	movq	-456(%rbp), %rax
	movl	$1, %edx
	movaps	%xmm2, %xmm1
	movd	%ecx, %xmm0
	movq	%rax, %rdi
	call	emb_pattern_addStitchAbs@PLT
	addl	$1, -8(%rbp)
.L974:
	movl	-8(%rbp), %eax
	cmpl	-24(%rbp), %eax
	jl	.L980
	jmp	.L976
.L982:
	nop
.L976:
	movl	$1, %eax
	leave
	.cfi_def_cfa 7, 8
	ret
	.cfi_endproc
.LFE115:
	.size	readPcq, .-readPcq
	.globl	writePcq
	.type	writePcq, @function
writePcq:
.LFB116:
	.cfi_startproc
	pushq	%rbp
	.cfi_def_cfa_offset 16
	.cfi_offset 6, -16
	movq	%rsp, %rbp
	.cfi_def_cfa_register 6
	pushq	%r12
	pushq	%rbx
	subq	$48, %rsp
	.cfi_offset 12, -24
	.cfi_offset 3, -32
	movq	%rdi, -56(%rbp)
	movq	%rsi, -64(%rbp)
	movq	-64(%rbp), %rax
	movq	%rax, %rcx
	movl	$2, %edx
	movl	$1, %esi
	leaq	.LC260(%rip), %rax
	movq	%rax, %rdi
	call	fwrite@PLT
	movq	-56(%rbp), %rax
	movq	24(%rax), %rax
	movl	24(%rax), %eax
	movzwl	%ax, %edx
	movq	-64(%rbp), %rax
	movl	%edx, %esi
	movq	%rax, %rdi
	call	emb_write_u16@PLT
	movl	$0, -20(%rbp)
	jmp	.L984
.L985:
	movq	-56(%rbp), %rax
	movq	24(%rax), %rax
	movq	16(%rax), %rdx
	movl	-20(%rbp), %eax
	cltq
	imulq	$403, %rax, %rax
	addq	%rdx, %rax
	movzwl	(%rax), %edx
	movw	%dx, -23(%rbp)
	movzbl	2(%rax), %eax
	movb	%al, -21(%rbp)
	movq	-64(%rbp), %rax
	movl	$4, %edx
	movzbl	-23(%rbp), %ecx
	movzbl	-22(%rbp), %esi
	salq	$8, %rsi
	orq	%rcx, %rsi
	movzbl	-21(%rbp), %ecx
	salq	$16, %rcx
	orq	%rsi, %rcx
	movq	%rcx, %rsi
	movq	%rax, %rdi
	call	embColor_write@PLT
	addl	$1, -20(%rbp)
.L984:
	movq	-56(%rbp), %rax
	movq	24(%rax), %rax
	movl	24(%rax), %eax
	cmpl	%eax, -20(%rbp)
	jl	.L985
	movl	$16, %eax
	subl	-20(%rbp), %eax
	leal	0(,%rax,4), %edx
	movq	-64(%rbp), %rax
	movl	$0, %esi
	movq	%rax, %rdi
	call	fpad@PLT
	movq	-56(%rbp), %rax
	movq	32(%rax), %rax
	movl	24(%rax), %eax
	movzwl	%ax, %edx
	movq	-64(%rbp), %rax
	movl	%edx, %esi
	movq	%rax, %rdi
	call	emb_write_u16@PLT
	movl	$0, -20(%rbp)
	jmp	.L986
.L987:
	movq	-56(%rbp), %rax
	movq	32(%rax), %rax
	movq	8(%rax), %rax
	movl	-20(%rbp), %edx
	movslq	%edx, %rdx
	salq	$4, %rdx
	addq	%rdx, %rax
	movq	8(%rax), %rdx
	movq	(%rax), %rax
	movq	%rax, -48(%rbp)
	movq	%rdx, -40(%rbp)
	movl	-48(%rbp), %ebx
	movss	-40(%rbp), %xmm1
	movss	.LC18(%rip), %xmm0
	mulss	%xmm0, %xmm1
	movd	%xmm1, %eax
	movd	%eax, %xmm0
	call	emb_round@PLT
	movl	%eax, %r12d
	movss	-44(%rbp), %xmm1
	movss	.LC18(%rip), %xmm0
	mulss	%xmm0, %xmm1
	movd	%xmm1, %eax
	movd	%eax, %xmm0
	call	emb_round@PLT
	movl	%eax, %esi
	movq	-64(%rbp), %rax
	movl	%ebx, %ecx
	movl	%r12d, %edx
	movq	%rax, %rdi
	call	pfaffEncode@PLT
	addl	$1, -20(%rbp)
.L986:
	movq	-56(%rbp), %rax
	movq	32(%rax), %rax
	movl	24(%rax), %eax
	cmpl	%eax, -20(%rbp)
	jl	.L987
	movl	$1, %eax
	addq	$48, %rsp
	popq	%rbx
	popq	%r12
	popq	%rbp
	.cfi_def_cfa 7, 8
	ret
	.cfi_endproc
.LFE116:
	.size	writePcq, .-writePcq
	.section	.rodata
.LC266:
	.string	"color count: %d\n"
	.text
	.globl	readPcs
	.type	readPcs, @function
readPcs:
.LFB117:
	.cfi_startproc
	pushq	%rbp
	.cfi_def_cfa_offset 16
	.cfi_offset 6, -16
	movq	%rsp, %rbp
	.cfi_def_cfa_register 6
	subq	$480, %rsp
	movq	%rdi, -456(%rbp)
	movq	%rsi, -464(%rbp)
	movq	%rdx, -472(%rbp)
	movb	$1, -1(%rbp)
	movl	$0, -8(%rbp)
	pxor	%xmm0, %xmm0
	movss	%xmm0, -16(%rbp)
	pxor	%xmm0, %xmm0
	movss	%xmm0, -20(%rbp)
	movl	$0, -12(%rbp)
	movl	$0, -24(%rbp)
	movq	-472(%rbp), %rax
	movq	%rax, %rdi
	call	fgetc@PLT
	movb	%al, -25(%rbp)
	movq	-472(%rbp), %rax
	movq	%rax, %rdi
	call	fgetc@PLT
	movb	%al, -26(%rbp)
	movzbl	-26(%rbp), %eax
	cmpl	$2, %eax
	je	.L990
	cmpl	$3, %eax
	je	.L991
	jmp	.L992
.L990:
	movq	-456(%rbp), %rax
	movss	.LC263(%rip), %xmm0
	movss	%xmm0, 16(%rax)
	movq	-456(%rbp), %rax
	movss	.LC263(%rip), %xmm0
	movss	%xmm0, 20(%rax)
	jmp	.L992
.L991:
	movq	-456(%rbp), %rax
	movss	.LC264(%rip), %xmm0
	movss	%xmm0, 16(%rax)
	movq	-456(%rbp), %rax
	movss	.LC265(%rip), %xmm0
	movss	%xmm0, 20(%rax)
	nop
.L992:
	movq	-472(%rbp), %rax
	movq	%rax, %rdi
	call	emb_read_u16@PLT
	movw	%ax, -28(%rbp)
	movl	emb_verbose(%rip), %eax
	cmpl	$1, %eax
	jle	.L993
	movzwl	-28(%rbp), %eax
	movl	%eax, %esi
	leaq	.LC193(%rip), %rax
	movq	%rax, %rdi
	movl	$0, %eax
	call	printf@PLT
.L993:
	movl	emb_verbose(%rip), %eax
	cmpl	$1, %eax
	jle	.L994
	movzbl	-25(%rbp), %eax
	movl	%eax, %esi
	leaq	.LC257(%rip), %rax
	movq	%rax, %rdi
	movl	$0, %eax
	call	printf@PLT
